
BuckOS_0.000.elf:     file format elf32-littlearm

Sections:
Idx Name          Size      VMA       LMA       File off  Algn
  0 .isr_vector   0000018c  08000000  08000000  00010000  2**0
                  CONTENTS, ALLOC, LOAD, READONLY, DATA
  1 .text         00002818  0800018c  0800018c  0001018c  2**2
                  CONTENTS, ALLOC, LOAD, READONLY, CODE
  2 .rodata       00000040  080029a4  080029a4  000129a4  2**2
                  CONTENTS, ALLOC, LOAD, READONLY, DATA
  3 .init_array   00000004  080029e4  080029e4  000129e4  2**2
                  CONTENTS, ALLOC, LOAD, DATA
  4 .fini_array   00000004  080029e8  080029e8  000129e8  2**2
                  CONTENTS, ALLOC, LOAD, DATA
  5 .data         00000434  20000000  080029ec  00020000  2**2
                  CONTENTS, ALLOC, LOAD, DATA
  6 .bss          0000115c  20000434  08002e20  00020434  2**2
                  ALLOC
  7 ._user_heap_stack 00000600  20001590  08002e20  00021590  2**0
                  ALLOC
  8 .ARM.attributes 00000030  00000000  00000000  00020434  2**0
                  CONTENTS, READONLY
  9 .debug_info   00011039  00000000  00000000  00020464  2**0
                  CONTENTS, READONLY, DEBUGGING
 10 .debug_abbrev 000023a4  00000000  00000000  0003149d  2**0
                  CONTENTS, READONLY, DEBUGGING
 11 .debug_loc    00001d02  00000000  00000000  00033841  2**0
                  CONTENTS, READONLY, DEBUGGING
 12 .debug_aranges 000006a0  00000000  00000000  00035548  2**3
                  CONTENTS, READONLY, DEBUGGING
 13 .debug_ranges 00000730  00000000  00000000  00035be8  2**3
                  CONTENTS, READONLY, DEBUGGING
 14 .debug_line   00003875  00000000  00000000  00036318  2**0
                  CONTENTS, READONLY, DEBUGGING
 15 .debug_str    000025bf  00000000  00000000  00039b8d  2**0
                  CONTENTS, READONLY, DEBUGGING
 16 .comment      0000007c  00000000  00000000  0003c14c  2**0
                  CONTENTS, READONLY
 17 .debug_frame  00000ec8  00000000  00000000  0003c1c8  2**2
                  CONTENTS, READONLY, DEBUGGING

Disassembly of section .text:

0800018c <__do_global_dtors_aux>:
 800018c:	b510      	push	{r4, lr}
 800018e:	4c05      	ldr	r4, [pc, #20]	; (80001a4 <__do_global_dtors_aux+0x18>)
 8000190:	7823      	ldrb	r3, [r4, #0]
 8000192:	b933      	cbnz	r3, 80001a2 <__do_global_dtors_aux+0x16>
 8000194:	4b04      	ldr	r3, [pc, #16]	; (80001a8 <__do_global_dtors_aux+0x1c>)
 8000196:	b113      	cbz	r3, 800019e <__do_global_dtors_aux+0x12>
 8000198:	4804      	ldr	r0, [pc, #16]	; (80001ac <__do_global_dtors_aux+0x20>)
 800019a:	f3af 8000 	nop.w
 800019e:	2301      	movs	r3, #1
 80001a0:	7023      	strb	r3, [r4, #0]
 80001a2:	bd10      	pop	{r4, pc}
 80001a4:	20000434 	.word	0x20000434
 80001a8:	00000000 	.word	0x00000000
 80001ac:	0800298c 	.word	0x0800298c

080001b0 <frame_dummy>:
 80001b0:	b508      	push	{r3, lr}
 80001b2:	4b03      	ldr	r3, [pc, #12]	; (80001c0 <frame_dummy+0x10>)
 80001b4:	b11b      	cbz	r3, 80001be <frame_dummy+0xe>
 80001b6:	4903      	ldr	r1, [pc, #12]	; (80001c4 <frame_dummy+0x14>)
 80001b8:	4803      	ldr	r0, [pc, #12]	; (80001c8 <frame_dummy+0x18>)
 80001ba:	f3af 8000 	nop.w
 80001be:	bd08      	pop	{r3, pc}
 80001c0:	00000000 	.word	0x00000000
 80001c4:	20000438 	.word	0x20000438
 80001c8:	0800298c 	.word	0x0800298c

080001cc <HAL_InitTick>:
  *       implementation  in user file.
  * @param TickPriority  Tick interrupt priority.
  * @retval HAL status
  */
__weak HAL_StatusTypeDef HAL_InitTick(uint32_t TickPriority)
{
 80001cc:	b510      	push	{r4, lr}
  /*Configure the SysTick to have interrupt in 1ms time basis*/
  HAL_SYSTICK_Config(SystemCoreClock/1000);
 80001ce:	4b08      	ldr	r3, [pc, #32]	; (80001f0 <HAL_InitTick+0x24>)
{
 80001d0:	4604      	mov	r4, r0
  HAL_SYSTICK_Config(SystemCoreClock/1000);
 80001d2:	6818      	ldr	r0, [r3, #0]
 80001d4:	f44f 737a 	mov.w	r3, #1000	; 0x3e8
 80001d8:	fbb0 f0f3 	udiv	r0, r0, r3
 80001dc:	f000 f86a 	bl	80002b4 <HAL_SYSTICK_Config>

  /*Configure the SysTick IRQ priority */
  HAL_NVIC_SetPriority(SysTick_IRQn, TickPriority ,0);
 80001e0:	2200      	movs	r2, #0
 80001e2:	4621      	mov	r1, r4
 80001e4:	f04f 30ff 	mov.w	r0, #4294967295
 80001e8:	f000 f830 	bl	800024c <HAL_NVIC_SetPriority>

  /* Return function status */
  return HAL_OK;
}
 80001ec:	2000      	movs	r0, #0
 80001ee:	bd10      	pop	{r4, pc}
 80001f0:	20000430 	.word	0x20000430

080001f4 <HAL_Init>:
{
 80001f4:	b508      	push	{r3, lr}
  HAL_NVIC_SetPriorityGrouping(NVIC_PRIORITYGROUP_4);
 80001f6:	2003      	movs	r0, #3
 80001f8:	f000 f816 	bl	8000228 <HAL_NVIC_SetPriorityGrouping>
  HAL_InitTick(TICK_INT_PRIORITY);
 80001fc:	2000      	movs	r0, #0
 80001fe:	f7ff ffe5 	bl	80001cc <HAL_InitTick>
  HAL_MspInit();
 8000202:	f000 fe7f 	bl	8000f04 <HAL_MspInit>
}
 8000206:	2000      	movs	r0, #0
 8000208:	bd08      	pop	{r3, pc}
	...

0800020c <HAL_IncTick>:
  *      implementations in user file.
  * @retval None
  */
__weak void HAL_IncTick(void)
{
  uwTick++;
 800020c:	4a02      	ldr	r2, [pc, #8]	; (8000218 <HAL_IncTick+0xc>)
 800020e:	6813      	ldr	r3, [r2, #0]
 8000210:	3301      	adds	r3, #1
 8000212:	6013      	str	r3, [r2, #0]
 8000214:	4770      	bx	lr
 8000216:	bf00      	nop
 8000218:	20000450 	.word	0x20000450

0800021c <HAL_GetTick>:
  *       implementations in user file.
  * @retval tick value
  */
__weak uint32_t HAL_GetTick(void)
{
  return uwTick;
 800021c:	4b01      	ldr	r3, [pc, #4]	; (8000224 <HAL_GetTick+0x8>)
 800021e:	6818      	ldr	r0, [r3, #0]
}
 8000220:	4770      	bx	lr
 8000222:	bf00      	nop
 8000224:	20000450 	.word	0x20000450

08000228 <HAL_NVIC_SetPriorityGrouping>:
__STATIC_INLINE void NVIC_SetPriorityGrouping(uint32_t PriorityGroup)
{
  uint32_t reg_value;
  uint32_t PriorityGroupTmp = (PriorityGroup & (uint32_t)0x07UL);             /* only values 0..7 are used          */

  reg_value  =  SCB->AIRCR;                                                   /* read old register configuration    */
 8000228:	4a07      	ldr	r2, [pc, #28]	; (8000248 <HAL_NVIC_SetPriorityGrouping+0x20>)
 800022a:	68d3      	ldr	r3, [r2, #12]
  reg_value &= ~((uint32_t)(SCB_AIRCR_VECTKEY_Msk | SCB_AIRCR_PRIGROUP_Msk)); /* clear bits to change               */
 800022c:	f423 63e0 	bic.w	r3, r3, #1792	; 0x700
 8000230:	041b      	lsls	r3, r3, #16
 8000232:	0c1b      	lsrs	r3, r3, #16
 8000234:	f043 63bf 	orr.w	r3, r3, #100139008	; 0x5f80000
  reg_value  =  (reg_value                                   |
                ((uint32_t)0x5FAUL << SCB_AIRCR_VECTKEY_Pos) |
                (PriorityGroupTmp << 8U)                      );              /* Insert write key and priorty group */
 8000238:	0200      	lsls	r0, r0, #8
 800023a:	f443 3300 	orr.w	r3, r3, #131072	; 0x20000
 800023e:	f400 60e0 	and.w	r0, r0, #1792	; 0x700
  reg_value  =  (reg_value                                   |
 8000242:	4303      	orrs	r3, r0
  SCB->AIRCR =  reg_value;
 8000244:	60d3      	str	r3, [r2, #12]
 8000246:	4770      	bx	lr
 8000248:	e000ed00 	.word	0xe000ed00

0800024c <HAL_NVIC_SetPriority>:
  \details Reads the priority grouping field from the NVIC Interrupt Controller.
  \return                Priority grouping field (SCB->AIRCR [10:8] PRIGROUP field).
 */
__STATIC_INLINE uint32_t NVIC_GetPriorityGrouping(void)
{
  return ((uint32_t)((SCB->AIRCR & SCB_AIRCR_PRIGROUP_Msk) >> SCB_AIRCR_PRIGROUP_Pos));
 800024c:	4b17      	ldr	r3, [pc, #92]	; (80002ac <HAL_NVIC_SetPriority+0x60>)
  *         This parameter can be a value between 0 and 15
  *         A lower priority value indicates a higher priority.
  * @retval None
  */
void HAL_NVIC_SetPriority(IRQn_Type IRQn, uint32_t PreemptPriority, uint32_t SubPriority)
{
 800024e:	b530      	push	{r4, r5, lr}
 8000250:	68dc      	ldr	r4, [r3, #12]
 8000252:	f3c4 2402 	ubfx	r4, r4, #8, #3
{
  uint32_t PriorityGroupTmp = (PriorityGroup & (uint32_t)0x07UL);   /* only values 0..7 are used          */
  uint32_t PreemptPriorityBits;
  uint32_t SubPriorityBits;

  PreemptPriorityBits = ((7UL - PriorityGroupTmp) > (uint32_t)(__NVIC_PRIO_BITS)) ? (uint32_t)(__NVIC_PRIO_BITS) : (uint32_t)(7UL - PriorityGroupTmp);
 8000256:	f1c4 0307 	rsb	r3, r4, #7
  SubPriorityBits     = ((PriorityGroupTmp + (uint32_t)(__NVIC_PRIO_BITS)) < (uint32_t)7UL) ? (uint32_t)0UL : (uint32_t)((PriorityGroupTmp - 7UL) + (uint32_t)(__NVIC_PRIO_BITS));
 800025a:	1d25      	adds	r5, r4, #4
  PreemptPriorityBits = ((7UL - PriorityGroupTmp) > (uint32_t)(__NVIC_PRIO_BITS)) ? (uint32_t)(__NVIC_PRIO_BITS) : (uint32_t)(7UL - PriorityGroupTmp);
 800025c:	2b04      	cmp	r3, #4
 800025e:	bf28      	it	cs
 8000260:	2304      	movcs	r3, #4
  SubPriorityBits     = ((PriorityGroupTmp + (uint32_t)(__NVIC_PRIO_BITS)) < (uint32_t)7UL) ? (uint32_t)0UL : (uint32_t)((PriorityGroupTmp - 7UL) + (uint32_t)(__NVIC_PRIO_BITS));
 8000262:	2d06      	cmp	r5, #6

  return (
           ((PreemptPriority & (uint32_t)((1UL << (PreemptPriorityBits)) - 1UL)) << SubPriorityBits) |
 8000264:	f04f 0501 	mov.w	r5, #1
 8000268:	fa05 f303 	lsl.w	r3, r5, r3
 800026c:	f103 33ff 	add.w	r3, r3, #4294967295
  SubPriorityBits     = ((PriorityGroupTmp + (uint32_t)(__NVIC_PRIO_BITS)) < (uint32_t)7UL) ? (uint32_t)0UL : (uint32_t)((PriorityGroupTmp - 7UL) + (uint32_t)(__NVIC_PRIO_BITS));
 8000270:	bf8c      	ite	hi
 8000272:	3c03      	subhi	r4, #3
 8000274:	2400      	movls	r4, #0
           ((PreemptPriority & (uint32_t)((1UL << (PreemptPriorityBits)) - 1UL)) << SubPriorityBits) |
 8000276:	4019      	ands	r1, r3
 8000278:	40a1      	lsls	r1, r4
           ((SubPriority     & (uint32_t)((1UL << (SubPriorityBits    )) - 1UL)))
 800027a:	fa05 f404 	lsl.w	r4, r5, r4
 800027e:	3c01      	subs	r4, #1
 8000280:	4022      	ands	r2, r4
  if ((int32_t)(IRQn) < 0)
 8000282:	2800      	cmp	r0, #0
           ((PreemptPriority & (uint32_t)((1UL << (PreemptPriorityBits)) - 1UL)) << SubPriorityBits) |
 8000284:	ea42 0201 	orr.w	r2, r2, r1
 8000288:	ea4f 1202 	mov.w	r2, r2, lsl #4
    NVIC->IP[((uint32_t)(int32_t)IRQn)]               = (uint8_t)((priority << (8U - __NVIC_PRIO_BITS)) & (uint32_t)0xFFUL);
 800028c:	bfaf      	iteee	ge
 800028e:	f100 4060 	addge.w	r0, r0, #3758096384	; 0xe0000000
    SCB->SHP[(((uint32_t)(int32_t)IRQn) & 0xFUL)-4UL] = (uint8_t)((priority << (8U - __NVIC_PRIO_BITS)) & (uint32_t)0xFFUL);
 8000292:	f000 000f 	andlt.w	r0, r0, #15
 8000296:	4b06      	ldrlt	r3, [pc, #24]	; (80002b0 <HAL_NVIC_SetPriority+0x64>)
 8000298:	b2d2      	uxtblt	r2, r2
    NVIC->IP[((uint32_t)(int32_t)IRQn)]               = (uint8_t)((priority << (8U - __NVIC_PRIO_BITS)) & (uint32_t)0xFFUL);
 800029a:	bfa5      	ittet	ge
 800029c:	f500 4061 	addge.w	r0, r0, #57600	; 0xe100
 80002a0:	b2d2      	uxtbge	r2, r2
    SCB->SHP[(((uint32_t)(int32_t)IRQn) & 0xFUL)-4UL] = (uint8_t)((priority << (8U - __NVIC_PRIO_BITS)) & (uint32_t)0xFFUL);
 80002a2:	541a      	strblt	r2, [r3, r0]
    NVIC->IP[((uint32_t)(int32_t)IRQn)]               = (uint8_t)((priority << (8U - __NVIC_PRIO_BITS)) & (uint32_t)0xFFUL);
 80002a4:	f880 2300 	strbge.w	r2, [r0, #768]	; 0x300
 80002a8:	bd30      	pop	{r4, r5, pc}
 80002aa:	bf00      	nop
 80002ac:	e000ed00 	.word	0xe000ed00
 80002b0:	e000ed14 	.word	0xe000ed14

080002b4 <HAL_SYSTICK_Config>:
           function <b>SysTick_Config</b> is not included. In this case, the file <b><i>device</i>.h</b>
           must contain a vendor-specific implementation of this function.
 */
__STATIC_INLINE uint32_t SysTick_Config(uint32_t ticks)
{
  if ((ticks - 1UL) > SysTick_LOAD_RELOAD_Msk)
 80002b4:	3801      	subs	r0, #1
 80002b6:	f1b0 7f80 	cmp.w	r0, #16777216	; 0x1000000
 80002ba:	d20a      	bcs.n	80002d2 <HAL_SYSTICK_Config+0x1e>
  {
    return (1UL);                                                   /* Reload value impossible */
  }

  SysTick->LOAD  = (uint32_t)(ticks - 1UL);                         /* set reload register */
 80002bc:	4b06      	ldr	r3, [pc, #24]	; (80002d8 <HAL_SYSTICK_Config+0x24>)
    SCB->SHP[(((uint32_t)(int32_t)IRQn) & 0xFUL)-4UL] = (uint8_t)((priority << (8U - __NVIC_PRIO_BITS)) & (uint32_t)0xFFUL);
 80002be:	4a07      	ldr	r2, [pc, #28]	; (80002dc <HAL_SYSTICK_Config+0x28>)
  SysTick->LOAD  = (uint32_t)(ticks - 1UL);                         /* set reload register */
 80002c0:	6058      	str	r0, [r3, #4]
    SCB->SHP[(((uint32_t)(int32_t)IRQn) & 0xFUL)-4UL] = (uint8_t)((priority << (8U - __NVIC_PRIO_BITS)) & (uint32_t)0xFFUL);
 80002c2:	21f0      	movs	r1, #240	; 0xf0
 80002c4:	f882 1023 	strb.w	r1, [r2, #35]	; 0x23
  NVIC_SetPriority (SysTick_IRQn, (1UL << __NVIC_PRIO_BITS) - 1UL); /* set Priority for Systick Interrupt */
  SysTick->VAL   = 0UL;                                             /* Load the SysTick Counter Value */
 80002c8:	2000      	movs	r0, #0
  SysTick->CTRL  = SysTick_CTRL_CLKSOURCE_Msk |
 80002ca:	2207      	movs	r2, #7
  SysTick->VAL   = 0UL;                                             /* Load the SysTick Counter Value */
 80002cc:	6098      	str	r0, [r3, #8]
  SysTick->CTRL  = SysTick_CTRL_CLKSOURCE_Msk |
 80002ce:	601a      	str	r2, [r3, #0]
 80002d0:	4770      	bx	lr
    return (1UL);                                                   /* Reload value impossible */
 80002d2:	2001      	movs	r0, #1
  *                  - 1  Function failed.
  */
uint32_t HAL_SYSTICK_Config(uint32_t TicksNumb)
{
   return SysTick_Config(TicksNumb);
}
 80002d4:	4770      	bx	lr
 80002d6:	bf00      	nop
 80002d8:	e000e010 	.word	0xe000e010
 80002dc:	e000ed00 	.word	0xe000ed00

080002e0 <HAL_SYSTICK_CLKSourceConfig>:
  *             @arg SYSTICK_CLKSOURCE_HCLK_DIV8: AHB clock divided by 8 selected as SysTick clock source.
  *             @arg SYSTICK_CLKSOURCE_HCLK: AHB clock selected as SysTick clock source.
  * @retval None
  */
void HAL_SYSTICK_CLKSourceConfig(uint32_t CLKSource)
{
 80002e0:	4b04      	ldr	r3, [pc, #16]	; (80002f4 <HAL_SYSTICK_CLKSourceConfig+0x14>)
  /* Check the parameters */
  assert_param(IS_SYSTICK_CLK_SOURCE(CLKSource));
  if (CLKSource == SYSTICK_CLKSOURCE_HCLK)
  {
    SysTick->CTRL |= SYSTICK_CLKSOURCE_HCLK;
 80002e2:	681a      	ldr	r2, [r3, #0]
  if (CLKSource == SYSTICK_CLKSOURCE_HCLK)
 80002e4:	2804      	cmp	r0, #4
    SysTick->CTRL |= SYSTICK_CLKSOURCE_HCLK;
 80002e6:	bf0c      	ite	eq
 80002e8:	f042 0204 	orreq.w	r2, r2, #4
  }
  else
  {
    SysTick->CTRL &= ~SYSTICK_CLKSOURCE_HCLK;
 80002ec:	f022 0204 	bicne.w	r2, r2, #4
 80002f0:	601a      	str	r2, [r3, #0]
 80002f2:	4770      	bx	lr
 80002f4:	e000e010 	.word	0xe000e010

080002f8 <HAL_SYSTICK_Callback>:
/**
  * @brief  SYSTICK callback.
  * @retval None
  */
__weak void HAL_SYSTICK_Callback(void)
{
 80002f8:	4770      	bx	lr

080002fa <HAL_SYSTICK_IRQHandler>:
{
 80002fa:	b508      	push	{r3, lr}
  HAL_SYSTICK_Callback();
 80002fc:	f7ff fffc 	bl	80002f8 <HAL_SYSTICK_Callback>
 8000300:	bd08      	pop	{r3, pc}
	...

08000304 <HAL_PWREx_GetVoltageRange>:
    else
    {
      return PWR_REGULATOR_VOLTAGE_SCALE1_BOOST;
    }
#else
  return  (PWR->CR1 & PWR_CR1_VOS);
 8000304:	4b02      	ldr	r3, [pc, #8]	; (8000310 <HAL_PWREx_GetVoltageRange+0xc>)
 8000306:	6818      	ldr	r0, [r3, #0]
#endif  
}
 8000308:	f400 60c0 	and.w	r0, r0, #1536	; 0x600
 800030c:	4770      	bx	lr
 800030e:	bf00      	nop
 8000310:	40007000 	.word	0x40007000

08000314 <HAL_PWREx_ControlVoltageScaling>:
  *        cleared before returning the status. If the flag is not cleared within
  *        50 microseconds, HAL_TIMEOUT status is reported.                    
  * @retval HAL Status
  */
HAL_StatusTypeDef HAL_PWREx_ControlVoltageScaling(uint32_t VoltageScaling)
{
 8000314:	4b16      	ldr	r3, [pc, #88]	; (8000370 <HAL_PWREx_ControlVoltageScaling+0x5c>)
#else

  /* If Set Range 1 */
  if (VoltageScaling == PWR_REGULATOR_VOLTAGE_SCALE1)
  {
    if (READ_BIT(PWR->CR1, PWR_CR1_VOS) != PWR_REGULATOR_VOLTAGE_SCALE1)
 8000316:	681a      	ldr	r2, [r3, #0]
  if (VoltageScaling == PWR_REGULATOR_VOLTAGE_SCALE1)
 8000318:	f5b0 7f00 	cmp.w	r0, #512	; 0x200
    if (READ_BIT(PWR->CR1, PWR_CR1_VOS) != PWR_REGULATOR_VOLTAGE_SCALE1)
 800031c:	f402 62c0 	and.w	r2, r2, #1536	; 0x600
  if (VoltageScaling == PWR_REGULATOR_VOLTAGE_SCALE1)
 8000320:	d11a      	bne.n	8000358 <HAL_PWREx_ControlVoltageScaling+0x44>
    if (READ_BIT(PWR->CR1, PWR_CR1_VOS) != PWR_REGULATOR_VOLTAGE_SCALE1)
 8000322:	f5b2 7f00 	cmp.w	r2, #512	; 0x200
 8000326:	d013      	beq.n	8000350 <HAL_PWREx_ControlVoltageScaling+0x3c>
    {
      /* Set Range 1 */
      MODIFY_REG(PWR->CR1, PWR_CR1_VOS, PWR_REGULATOR_VOLTAGE_SCALE1);
 8000328:	681a      	ldr	r2, [r3, #0]
      
      /* Wait until VOSF is cleared */      
      wait_loop_index = (PWR_FLAG_SETTING_DELAY_US * (SystemCoreClock / 1000000));
 800032a:	4912      	ldr	r1, [pc, #72]	; (8000374 <HAL_PWREx_ControlVoltageScaling+0x60>)
      MODIFY_REG(PWR->CR1, PWR_CR1_VOS, PWR_REGULATOR_VOLTAGE_SCALE1);
 800032c:	f422 62c0 	bic.w	r2, r2, #1536	; 0x600
 8000330:	f442 7200 	orr.w	r2, r2, #512	; 0x200
 8000334:	601a      	str	r2, [r3, #0]
      wait_loop_index = (PWR_FLAG_SETTING_DELAY_US * (SystemCoreClock / 1000000));
 8000336:	4a10      	ldr	r2, [pc, #64]	; (8000378 <HAL_PWREx_ControlVoltageScaling+0x64>)
 8000338:	6812      	ldr	r2, [r2, #0]
 800033a:	fbb2 f1f1 	udiv	r1, r2, r1
 800033e:	2232      	movs	r2, #50	; 0x32
 8000340:	434a      	muls	r2, r1
      while ((wait_loop_index != 0) && (HAL_IS_BIT_SET(PWR->SR2, PWR_SR2_VOSF)))
 8000342:	b112      	cbz	r2, 800034a <HAL_PWREx_ControlVoltageScaling+0x36>
 8000344:	6959      	ldr	r1, [r3, #20]
 8000346:	0549      	lsls	r1, r1, #21
 8000348:	d404      	bmi.n	8000354 <HAL_PWREx_ControlVoltageScaling+0x40>
      {
        wait_loop_index--;
      }
      if (HAL_IS_BIT_SET(PWR->SR2, PWR_SR2_VOSF))
 800034a:	695b      	ldr	r3, [r3, #20]
 800034c:	055b      	lsls	r3, r3, #21
 800034e:	d40d      	bmi.n	800036c <HAL_PWREx_ControlVoltageScaling+0x58>
      /* No need to wait for VOSF to be cleared for this transition */
    }
  }
#endif  
  
  return HAL_OK;
 8000350:	2000      	movs	r0, #0
 8000352:	4770      	bx	lr
        wait_loop_index--;
 8000354:	3a01      	subs	r2, #1
 8000356:	e7f4      	b.n	8000342 <HAL_PWREx_ControlVoltageScaling+0x2e>
    if (READ_BIT(PWR->CR1, PWR_CR1_VOS) != PWR_REGULATOR_VOLTAGE_SCALE2)
 8000358:	f5b2 6f80 	cmp.w	r2, #1024	; 0x400
      MODIFY_REG(PWR->CR1, PWR_CR1_VOS, PWR_REGULATOR_VOLTAGE_SCALE2);
 800035c:	bf1f      	itttt	ne
 800035e:	681a      	ldrne	r2, [r3, #0]
 8000360:	f422 62c0 	bicne.w	r2, r2, #1536	; 0x600
 8000364:	f442 6280 	orrne.w	r2, r2, #1024	; 0x400
 8000368:	601a      	strne	r2, [r3, #0]
 800036a:	e7f1      	b.n	8000350 <HAL_PWREx_ControlVoltageScaling+0x3c>
        return HAL_TIMEOUT;
 800036c:	2003      	movs	r0, #3
}  
 800036e:	4770      	bx	lr
 8000370:	40007000 	.word	0x40007000
 8000374:	000f4240 	.word	0x000f4240
 8000378:	20000430 	.word	0x20000430

0800037c <RCC_SetFlashLatencyFromMSIRange>:
            voltage range.
  * @param  msirange  MSI range value from RCC_MSIRANGE_0 to RCC_MSIRANGE_11
  * @retval HAL status
  */
static HAL_StatusTypeDef RCC_SetFlashLatencyFromMSIRange(uint32_t msirange)
{
 800037c:	b537      	push	{r0, r1, r2, r4, r5, lr}
  uint32_t vos = 0;
  uint32_t latency = FLASH_LATENCY_0;  /* default value 0WS */

  if(__HAL_RCC_PWR_IS_CLK_ENABLED())
 800037e:	4d1e      	ldr	r5, [pc, #120]	; (80003f8 <RCC_SetFlashLatencyFromMSIRange+0x7c>)
 8000380:	6dab      	ldr	r3, [r5, #88]	; 0x58
 8000382:	00da      	lsls	r2, r3, #3
{
 8000384:	4604      	mov	r4, r0
  if(__HAL_RCC_PWR_IS_CLK_ENABLED())
 8000386:	d518      	bpl.n	80003ba <RCC_SetFlashLatencyFromMSIRange+0x3e>
  {
    vos = HAL_PWREx_GetVoltageRange();
 8000388:	f7ff ffbc 	bl	8000304 <HAL_PWREx_GetVoltageRange>
    __HAL_RCC_PWR_CLK_ENABLE();
    vos = HAL_PWREx_GetVoltageRange();
    __HAL_RCC_PWR_CLK_DISABLE();
  }

  if(vos == PWR_REGULATOR_VOLTAGE_SCALE1)
 800038c:	f5b0 7f00 	cmp.w	r0, #512	; 0x200
 8000390:	d123      	bne.n	80003da <RCC_SetFlashLatencyFromMSIRange+0x5e>
  {
    if(msirange > RCC_MSIRANGE_8)
 8000392:	2c80      	cmp	r4, #128	; 0x80
 8000394:	d929      	bls.n	80003ea <RCC_SetFlashLatencyFromMSIRange+0x6e>
    {
      /* MSI > 16Mhz */
      if(msirange > RCC_MSIRANGE_10)
 8000396:	2ca0      	cmp	r4, #160	; 0xa0
        latency = FLASH_LATENCY_2; /* 2WS */
      }
      else
      {
        /* MSI 24Mhz or 32Mhz */
        latency = FLASH_LATENCY_1; /* 1WS */
 8000398:	bf8c      	ite	hi
 800039a:	2002      	movhi	r0, #2
 800039c:	2001      	movls	r0, #1
      /* else MSI < 8Mhz default FLASH_LATENCY_0 0WS */
    }
#endif
  }

  __HAL_FLASH_SET_LATENCY(latency);
 800039e:	4a17      	ldr	r2, [pc, #92]	; (80003fc <RCC_SetFlashLatencyFromMSIRange+0x80>)
 80003a0:	6813      	ldr	r3, [r2, #0]
 80003a2:	f023 0307 	bic.w	r3, r3, #7
 80003a6:	4303      	orrs	r3, r0
 80003a8:	6013      	str	r3, [r2, #0]

  /* Check that the new number of wait states is taken into account to access the Flash
     memory by reading the FLASH_ACR register */
  if(READ_BIT(FLASH->ACR, FLASH_ACR_LATENCY) != latency)
 80003aa:	6813      	ldr	r3, [r2, #0]
 80003ac:	f003 0307 	and.w	r3, r3, #7
  {
    return HAL_ERROR;
  }

  return HAL_OK;
}
 80003b0:	1a18      	subs	r0, r3, r0
 80003b2:	bf18      	it	ne
 80003b4:	2001      	movne	r0, #1
 80003b6:	b003      	add	sp, #12
 80003b8:	bd30      	pop	{r4, r5, pc}
    __HAL_RCC_PWR_CLK_ENABLE();
 80003ba:	6dab      	ldr	r3, [r5, #88]	; 0x58
 80003bc:	f043 5380 	orr.w	r3, r3, #268435456	; 0x10000000
 80003c0:	65ab      	str	r3, [r5, #88]	; 0x58
 80003c2:	6dab      	ldr	r3, [r5, #88]	; 0x58
 80003c4:	f003 5380 	and.w	r3, r3, #268435456	; 0x10000000
 80003c8:	9301      	str	r3, [sp, #4]
 80003ca:	9b01      	ldr	r3, [sp, #4]
    vos = HAL_PWREx_GetVoltageRange();
 80003cc:	f7ff ff9a 	bl	8000304 <HAL_PWREx_GetVoltageRange>
    __HAL_RCC_PWR_CLK_DISABLE();
 80003d0:	6dab      	ldr	r3, [r5, #88]	; 0x58
 80003d2:	f023 5380 	bic.w	r3, r3, #268435456	; 0x10000000
 80003d6:	65ab      	str	r3, [r5, #88]	; 0x58
 80003d8:	e7d8      	b.n	800038c <RCC_SetFlashLatencyFromMSIRange+0x10>
    if(msirange > RCC_MSIRANGE_8)
 80003da:	2c80      	cmp	r4, #128	; 0x80
 80003dc:	d807      	bhi.n	80003ee <RCC_SetFlashLatencyFromMSIRange+0x72>
      if(msirange == RCC_MSIRANGE_8)
 80003de:	d008      	beq.n	80003f2 <RCC_SetFlashLatencyFromMSIRange+0x76>
      else if(msirange == RCC_MSIRANGE_7)
 80003e0:	f1a4 0370 	sub.w	r3, r4, #112	; 0x70
 80003e4:	4258      	negs	r0, r3
 80003e6:	4158      	adcs	r0, r3
 80003e8:	e7d9      	b.n	800039e <RCC_SetFlashLatencyFromMSIRange+0x22>
  uint32_t latency = FLASH_LATENCY_0;  /* default value 0WS */
 80003ea:	2000      	movs	r0, #0
 80003ec:	e7d7      	b.n	800039e <RCC_SetFlashLatencyFromMSIRange+0x22>
      latency = FLASH_LATENCY_3; /* 3WS */
 80003ee:	2003      	movs	r0, #3
 80003f0:	e7d5      	b.n	800039e <RCC_SetFlashLatencyFromMSIRange+0x22>
        latency = FLASH_LATENCY_2; /* 2WS */
 80003f2:	2002      	movs	r0, #2
 80003f4:	e7d3      	b.n	800039e <RCC_SetFlashLatencyFromMSIRange+0x22>
 80003f6:	bf00      	nop
 80003f8:	40021000 	.word	0x40021000
 80003fc:	40022000 	.word	0x40022000

08000400 <HAL_RCC_GetSysClockFreq>:
  if((__HAL_RCC_GET_SYSCLK_SOURCE() == RCC_CFGR_SWS_MSI) ||
 8000400:	4b2f      	ldr	r3, [pc, #188]	; (80004c0 <HAL_RCC_GetSysClockFreq+0xc0>)
 8000402:	689a      	ldr	r2, [r3, #8]
 8000404:	f012 0f0c 	tst.w	r2, #12
{
 8000408:	b510      	push	{r4, lr}
  if((__HAL_RCC_GET_SYSCLK_SOURCE() == RCC_CFGR_SWS_MSI) ||
 800040a:	d009      	beq.n	8000420 <HAL_RCC_GetSysClockFreq+0x20>
     ((__HAL_RCC_GET_SYSCLK_SOURCE() == RCC_CFGR_SWS_PLL) && (__HAL_RCC_GET_PLL_OSCSOURCE() == RCC_PLLSOURCE_MSI)))
 800040c:	689a      	ldr	r2, [r3, #8]
 800040e:	f002 020c 	and.w	r2, r2, #12
  if((__HAL_RCC_GET_SYSCLK_SOURCE() == RCC_CFGR_SWS_MSI) ||
 8000412:	2a0c      	cmp	r2, #12
 8000414:	d12d      	bne.n	8000472 <HAL_RCC_GetSysClockFreq+0x72>
     ((__HAL_RCC_GET_SYSCLK_SOURCE() == RCC_CFGR_SWS_PLL) && (__HAL_RCC_GET_PLL_OSCSOURCE() == RCC_PLLSOURCE_MSI)))
 8000416:	68da      	ldr	r2, [r3, #12]
 8000418:	f002 0203 	and.w	r2, r2, #3
 800041c:	2a01      	cmp	r2, #1
 800041e:	d128      	bne.n	8000472 <HAL_RCC_GetSysClockFreq+0x72>
    if(READ_BIT(RCC->CR, RCC_CR_MSIRGSEL) == RESET)
 8000420:	681a      	ldr	r2, [r3, #0]
    msirange = MSIRangeTable[msirange];
 8000422:	4928      	ldr	r1, [pc, #160]	; (80004c4 <HAL_RCC_GetSysClockFreq+0xc4>)
    if(READ_BIT(RCC->CR, RCC_CR_MSIRGSEL) == RESET)
 8000424:	0712      	lsls	r2, r2, #28
      msirange = READ_BIT(RCC->CSR, RCC_CSR_MSISRANGE) >> RCC_CSR_MSISRANGE_Pos;
 8000426:	bf55      	itete	pl
 8000428:	f8d3 2094 	ldrpl.w	r2, [r3, #148]	; 0x94
      msirange = READ_BIT(RCC->CR, RCC_CR_MSIRANGE) >> RCC_CR_MSIRANGE_Pos;
 800042c:	681a      	ldrmi	r2, [r3, #0]
      msirange = READ_BIT(RCC->CSR, RCC_CSR_MSISRANGE) >> RCC_CSR_MSISRANGE_Pos;
 800042e:	f3c2 2203 	ubfxpl	r2, r2, #8, #4
      msirange = READ_BIT(RCC->CR, RCC_CR_MSIRANGE) >> RCC_CR_MSIRANGE_Pos;
 8000432:	f3c2 1203 	ubfxmi	r2, r2, #4, #4
    msirange = MSIRangeTable[msirange];
 8000436:	f851 2022 	ldr.w	r2, [r1, r2, lsl #2]
    if(__HAL_RCC_GET_SYSCLK_SOURCE() == RCC_CFGR_SWS_MSI)
 800043a:	6899      	ldr	r1, [r3, #8]
      sysclockfreq = msirange;
 800043c:	f011 0f0c 	tst.w	r1, #12
 8000440:	bf0c      	ite	eq
 8000442:	4610      	moveq	r0, r2
 8000444:	2000      	movne	r0, #0
  if(__HAL_RCC_GET_SYSCLK_SOURCE() == RCC_CFGR_SWS_PLL)
 8000446:	6899      	ldr	r1, [r3, #8]
 8000448:	f001 010c 	and.w	r1, r1, #12
 800044c:	290c      	cmp	r1, #12
 800044e:	d130      	bne.n	80004b2 <HAL_RCC_GetSysClockFreq+0xb2>
    pllsource = READ_BIT(RCC->PLLCFGR, RCC_PLLCFGR_PLLSRC);
 8000450:	68dc      	ldr	r4, [r3, #12]
    pllm = (READ_BIT(RCC->PLLCFGR, RCC_PLLCFGR_PLLM) >> RCC_PLLCFGR_PLLM_Pos) + 1U ;
 8000452:	68d8      	ldr	r0, [r3, #12]
 8000454:	f3c0 1002 	ubfx	r0, r0, #4, #3
 8000458:	1c41      	adds	r1, r0, #1
    pllsource = READ_BIT(RCC->PLLCFGR, RCC_PLLCFGR_PLLSRC);
 800045a:	f004 0003 	and.w	r0, r4, #3
    switch (pllsource)
 800045e:	2802      	cmp	r0, #2
 8000460:	d019      	beq.n	8000496 <HAL_RCC_GetSysClockFreq+0x96>
 8000462:	2803      	cmp	r0, #3
 8000464:	d026      	beq.n	80004b4 <HAL_RCC_GetSysClockFreq+0xb4>
      pllvco = (msirange / pllm) * (READ_BIT(RCC->PLLCFGR, RCC_PLLCFGR_PLLN) >> RCC_PLLCFGR_PLLN_Pos);
 8000466:	fbb2 f2f1 	udiv	r2, r2, r1
 800046a:	68d8      	ldr	r0, [r3, #12]
 800046c:	f3c0 2006 	ubfx	r0, r0, #8, #7
 8000470:	e017      	b.n	80004a2 <HAL_RCC_GetSysClockFreq+0xa2>
  else if(__HAL_RCC_GET_SYSCLK_SOURCE() == RCC_CFGR_SWS_HSI)
 8000472:	689a      	ldr	r2, [r3, #8]
 8000474:	f002 020c 	and.w	r2, r2, #12
 8000478:	2a04      	cmp	r2, #4
 800047a:	d007      	beq.n	800048c <HAL_RCC_GetSysClockFreq+0x8c>
  else if(__HAL_RCC_GET_SYSCLK_SOURCE() == RCC_CFGR_SWS_HSE)
 800047c:	689a      	ldr	r2, [r3, #8]
 800047e:	f002 020c 	and.w	r2, r2, #12
 8000482:	2a08      	cmp	r2, #8
 8000484:	d104      	bne.n	8000490 <HAL_RCC_GetSysClockFreq+0x90>
    sysclockfreq = HSE_VALUE;
 8000486:	4810      	ldr	r0, [pc, #64]	; (80004c8 <HAL_RCC_GetSysClockFreq+0xc8>)
  uint32_t msirange = 0U, pllvco = 0U, pllsource = 0U, pllr = 2U, pllm = 2U;
 8000488:	2200      	movs	r2, #0
 800048a:	e7dc      	b.n	8000446 <HAL_RCC_GetSysClockFreq+0x46>
    sysclockfreq = HSI_VALUE;
 800048c:	480f      	ldr	r0, [pc, #60]	; (80004cc <HAL_RCC_GetSysClockFreq+0xcc>)
 800048e:	e7fb      	b.n	8000488 <HAL_RCC_GetSysClockFreq+0x88>
  uint32_t sysclockfreq = 0U;
 8000490:	2000      	movs	r0, #0
  uint32_t msirange = 0U, pllvco = 0U, pllsource = 0U, pllr = 2U, pllm = 2U;
 8000492:	4602      	mov	r2, r0
 8000494:	e7d7      	b.n	8000446 <HAL_RCC_GetSysClockFreq+0x46>
      pllvco = (HSI_VALUE / pllm) * (READ_BIT(RCC->PLLCFGR, RCC_PLLCFGR_PLLN) >> RCC_PLLCFGR_PLLN_Pos);
 8000496:	68da      	ldr	r2, [r3, #12]
 8000498:	480c      	ldr	r0, [pc, #48]	; (80004cc <HAL_RCC_GetSysClockFreq+0xcc>)
 800049a:	f3c2 2206 	ubfx	r2, r2, #8, #7
      pllvco = (HSE_VALUE / pllm) * (READ_BIT(RCC->PLLCFGR, RCC_PLLCFGR_PLLN) >> RCC_PLLCFGR_PLLN_Pos);
 800049e:	fbb0 f0f1 	udiv	r0, r0, r1
    pllr = ((READ_BIT(RCC->PLLCFGR, RCC_PLLCFGR_PLLR) >> RCC_PLLCFGR_PLLR_Pos) + 1U ) * 2U;
 80004a2:	68db      	ldr	r3, [r3, #12]
 80004a4:	f3c3 6341 	ubfx	r3, r3, #25, #2
 80004a8:	3301      	adds	r3, #1
      pllvco = (msirange / pllm) * (READ_BIT(RCC->PLLCFGR, RCC_PLLCFGR_PLLN) >> RCC_PLLCFGR_PLLN_Pos);
 80004aa:	4350      	muls	r0, r2
    pllr = ((READ_BIT(RCC->PLLCFGR, RCC_PLLCFGR_PLLR) >> RCC_PLLCFGR_PLLR_Pos) + 1U ) * 2U;
 80004ac:	005b      	lsls	r3, r3, #1
    sysclockfreq = pllvco/pllr;
 80004ae:	fbb0 f0f3 	udiv	r0, r0, r3
}
 80004b2:	bd10      	pop	{r4, pc}
      pllvco = (HSE_VALUE / pllm) * (READ_BIT(RCC->PLLCFGR, RCC_PLLCFGR_PLLN) >> RCC_PLLCFGR_PLLN_Pos);
 80004b4:	68da      	ldr	r2, [r3, #12]
 80004b6:	4804      	ldr	r0, [pc, #16]	; (80004c8 <HAL_RCC_GetSysClockFreq+0xc8>)
 80004b8:	f3c2 2206 	ubfx	r2, r2, #8, #7
 80004bc:	e7ef      	b.n	800049e <HAL_RCC_GetSysClockFreq+0x9e>
 80004be:	bf00      	nop
 80004c0:	40021000 	.word	0x40021000
 80004c4:	080029b4 	.word	0x080029b4
 80004c8:	007a1200 	.word	0x007a1200
 80004cc:	00f42400 	.word	0x00f42400

080004d0 <HAL_RCC_OscConfig>:
  if(((RCC_OscInitStruct->OscillatorType) & RCC_OSCILLATORTYPE_MSI) == RCC_OSCILLATORTYPE_MSI)
 80004d0:	6803      	ldr	r3, [r0, #0]
{
 80004d2:	e92d 41f3 	stmdb	sp!, {r0, r1, r4, r5, r6, r7, r8, lr}
 80004d6:	4605      	mov	r5, r0
  if(((RCC_OscInitStruct->OscillatorType) & RCC_OSCILLATORTYPE_MSI) == RCC_OSCILLATORTYPE_MSI)
 80004d8:	06d8      	lsls	r0, r3, #27
 80004da:	d539      	bpl.n	8000550 <HAL_RCC_OscConfig+0x80>
    if((__HAL_RCC_GET_SYSCLK_SOURCE() == RCC_CFGR_SWS_MSI) )
 80004dc:	4cab      	ldr	r4, [pc, #684]	; (800078c <HAL_RCC_OscConfig+0x2bc>)
 80004de:	68a3      	ldr	r3, [r4, #8]
 80004e0:	f013 0f0c 	tst.w	r3, #12
 80004e4:	d162      	bne.n	80005ac <HAL_RCC_OscConfig+0xdc>
      if((READ_BIT(RCC->CR, RCC_CR_MSIRDY) != RESET) && (RCC_OscInitStruct->MSIState == RCC_MSI_OFF))
 80004e6:	6823      	ldr	r3, [r4, #0]
 80004e8:	0799      	lsls	r1, r3, #30
 80004ea:	d503      	bpl.n	80004f4 <HAL_RCC_OscConfig+0x24>
 80004ec:	69ab      	ldr	r3, [r5, #24]
 80004ee:	b90b      	cbnz	r3, 80004f4 <HAL_RCC_OscConfig+0x24>
      return HAL_ERROR;
 80004f0:	2001      	movs	r0, #1
 80004f2:	e07f      	b.n	80005f4 <HAL_RCC_OscConfig+0x124>
        if(RCC_OscInitStruct->MSIClockRange > __HAL_RCC_GET_MSI_RANGE())
 80004f4:	6823      	ldr	r3, [r4, #0]
 80004f6:	6a28      	ldr	r0, [r5, #32]
 80004f8:	071a      	lsls	r2, r3, #28
 80004fa:	bf56      	itet	pl
 80004fc:	f8d4 3094 	ldrpl.w	r3, [r4, #148]	; 0x94
 8000500:	6823      	ldrmi	r3, [r4, #0]
 8000502:	091b      	lsrpl	r3, r3, #4
 8000504:	f003 03f0 	and.w	r3, r3, #240	; 0xf0
 8000508:	4283      	cmp	r3, r0
 800050a:	d23a      	bcs.n	8000582 <HAL_RCC_OscConfig+0xb2>
          if(RCC_SetFlashLatencyFromMSIRange(RCC_OscInitStruct->MSIClockRange) != HAL_OK)
 800050c:	f7ff ff36 	bl	800037c <RCC_SetFlashLatencyFromMSIRange>
 8000510:	2800      	cmp	r0, #0
 8000512:	d1ed      	bne.n	80004f0 <HAL_RCC_OscConfig+0x20>
          __HAL_RCC_MSI_RANGE_CONFIG(RCC_OscInitStruct->MSIClockRange);
 8000514:	6823      	ldr	r3, [r4, #0]
 8000516:	f043 0308 	orr.w	r3, r3, #8
 800051a:	6023      	str	r3, [r4, #0]
 800051c:	6823      	ldr	r3, [r4, #0]
 800051e:	6a2a      	ldr	r2, [r5, #32]
 8000520:	f023 03f0 	bic.w	r3, r3, #240	; 0xf0
 8000524:	4313      	orrs	r3, r2
 8000526:	6023      	str	r3, [r4, #0]
          __HAL_RCC_MSI_CALIBRATIONVALUE_ADJUST(RCC_OscInitStruct->MSICalibrationValue);
 8000528:	6863      	ldr	r3, [r4, #4]
 800052a:	69ea      	ldr	r2, [r5, #28]
 800052c:	f423 437f 	bic.w	r3, r3, #65280	; 0xff00
 8000530:	ea43 2302 	orr.w	r3, r3, r2, lsl #8
 8000534:	6063      	str	r3, [r4, #4]
        SystemCoreClock = HAL_RCC_GetSysClockFreq() >> AHBPrescTable[READ_BIT(RCC->CFGR, RCC_CFGR_HPRE) >> RCC_CFGR_HPRE_Pos];
 8000536:	f7ff ff63 	bl	8000400 <HAL_RCC_GetSysClockFreq>
 800053a:	68a3      	ldr	r3, [r4, #8]
 800053c:	4a94      	ldr	r2, [pc, #592]	; (8000790 <HAL_RCC_OscConfig+0x2c0>)
 800053e:	f3c3 1303 	ubfx	r3, r3, #4, #4
 8000542:	5cd3      	ldrb	r3, [r2, r3]
 8000544:	40d8      	lsrs	r0, r3
 8000546:	4b93      	ldr	r3, [pc, #588]	; (8000794 <HAL_RCC_OscConfig+0x2c4>)
 8000548:	6018      	str	r0, [r3, #0]
        HAL_InitTick (TICK_INT_PRIORITY);
 800054a:	2000      	movs	r0, #0
 800054c:	f7ff fe3e 	bl	80001cc <HAL_InitTick>
  if(((RCC_OscInitStruct->OscillatorType) & RCC_OSCILLATORTYPE_HSE) == RCC_OSCILLATORTYPE_HSE)
 8000550:	682b      	ldr	r3, [r5, #0]
 8000552:	07d8      	lsls	r0, r3, #31
 8000554:	d461      	bmi.n	800061a <HAL_RCC_OscConfig+0x14a>
  if(((RCC_OscInitStruct->OscillatorType) & RCC_OSCILLATORTYPE_HSI) == RCC_OSCILLATORTYPE_HSI)
 8000556:	682b      	ldr	r3, [r5, #0]
 8000558:	0799      	lsls	r1, r3, #30
 800055a:	f100 80a9 	bmi.w	80006b0 <HAL_RCC_OscConfig+0x1e0>
  if(((RCC_OscInitStruct->OscillatorType) & RCC_OSCILLATORTYPE_LSI) == RCC_OSCILLATORTYPE_LSI)
 800055e:	682b      	ldr	r3, [r5, #0]
 8000560:	071a      	lsls	r2, r3, #28
 8000562:	f100 80e7 	bmi.w	8000734 <HAL_RCC_OscConfig+0x264>
  if(((RCC_OscInitStruct->OscillatorType) & RCC_OSCILLATORTYPE_LSE) == RCC_OSCILLATORTYPE_LSE)
 8000566:	682b      	ldr	r3, [r5, #0]
 8000568:	075b      	lsls	r3, r3, #29
 800056a:	f100 8115 	bmi.w	8000798 <HAL_RCC_OscConfig+0x2c8>
  if(((RCC_OscInitStruct->OscillatorType) & RCC_OSCILLATORTYPE_HSI48) == RCC_OSCILLATORTYPE_HSI48)
 800056e:	682b      	ldr	r3, [r5, #0]
 8000570:	069a      	lsls	r2, r3, #26
 8000572:	f100 817c 	bmi.w	800086e <HAL_RCC_OscConfig+0x39e>
  if(RCC_OscInitStruct->PLL.PLLState != RCC_PLL_NONE)
 8000576:	6aaa      	ldr	r2, [r5, #40]	; 0x28
 8000578:	2a00      	cmp	r2, #0
 800057a:	f040 81a3 	bne.w	80008c4 <HAL_RCC_OscConfig+0x3f4>
  return HAL_OK;
 800057e:	2000      	movs	r0, #0
 8000580:	e038      	b.n	80005f4 <HAL_RCC_OscConfig+0x124>
          __HAL_RCC_MSI_RANGE_CONFIG(RCC_OscInitStruct->MSIClockRange);
 8000582:	6823      	ldr	r3, [r4, #0]
 8000584:	f043 0308 	orr.w	r3, r3, #8
 8000588:	6023      	str	r3, [r4, #0]
 800058a:	6823      	ldr	r3, [r4, #0]
 800058c:	f023 03f0 	bic.w	r3, r3, #240	; 0xf0
 8000590:	4303      	orrs	r3, r0
 8000592:	6023      	str	r3, [r4, #0]
          __HAL_RCC_MSI_CALIBRATIONVALUE_ADJUST(RCC_OscInitStruct->MSICalibrationValue);
 8000594:	6863      	ldr	r3, [r4, #4]
 8000596:	69ea      	ldr	r2, [r5, #28]
 8000598:	f423 437f 	bic.w	r3, r3, #65280	; 0xff00
 800059c:	ea43 2302 	orr.w	r3, r3, r2, lsl #8
 80005a0:	6063      	str	r3, [r4, #4]
          if(RCC_SetFlashLatencyFromMSIRange(RCC_OscInitStruct->MSIClockRange) != HAL_OK)
 80005a2:	f7ff feeb 	bl	800037c <RCC_SetFlashLatencyFromMSIRange>
 80005a6:	2800      	cmp	r0, #0
 80005a8:	d0c5      	beq.n	8000536 <HAL_RCC_OscConfig+0x66>
 80005aa:	e7a1      	b.n	80004f0 <HAL_RCC_OscConfig+0x20>
      if(RCC_OscInitStruct->MSIState != RCC_MSI_OFF)
 80005ac:	69ab      	ldr	r3, [r5, #24]
 80005ae:	b323      	cbz	r3, 80005fa <HAL_RCC_OscConfig+0x12a>
        __HAL_RCC_MSI_ENABLE();
 80005b0:	6823      	ldr	r3, [r4, #0]
 80005b2:	f043 0301 	orr.w	r3, r3, #1
 80005b6:	6023      	str	r3, [r4, #0]
        tickstart = HAL_GetTick();
 80005b8:	f7ff fe30 	bl	800021c <HAL_GetTick>
 80005bc:	4606      	mov	r6, r0
        while(READ_BIT(RCC->CR, RCC_CR_MSIRDY) == RESET)
 80005be:	6823      	ldr	r3, [r4, #0]
 80005c0:	079b      	lsls	r3, r3, #30
 80005c2:	d511      	bpl.n	80005e8 <HAL_RCC_OscConfig+0x118>
        __HAL_RCC_MSI_RANGE_CONFIG(RCC_OscInitStruct->MSIClockRange);
 80005c4:	6823      	ldr	r3, [r4, #0]
 80005c6:	f043 0308 	orr.w	r3, r3, #8
 80005ca:	6023      	str	r3, [r4, #0]
 80005cc:	6823      	ldr	r3, [r4, #0]
 80005ce:	6a2a      	ldr	r2, [r5, #32]
 80005d0:	f023 03f0 	bic.w	r3, r3, #240	; 0xf0
 80005d4:	4313      	orrs	r3, r2
 80005d6:	6023      	str	r3, [r4, #0]
        __HAL_RCC_MSI_CALIBRATIONVALUE_ADJUST(RCC_OscInitStruct->MSICalibrationValue);
 80005d8:	6863      	ldr	r3, [r4, #4]
 80005da:	69ea      	ldr	r2, [r5, #28]
 80005dc:	f423 437f 	bic.w	r3, r3, #65280	; 0xff00
 80005e0:	ea43 2302 	orr.w	r3, r3, r2, lsl #8
 80005e4:	6063      	str	r3, [r4, #4]
 80005e6:	e7b3      	b.n	8000550 <HAL_RCC_OscConfig+0x80>
          if((HAL_GetTick() - tickstart) > MSI_TIMEOUT_VALUE)
 80005e8:	f7ff fe18 	bl	800021c <HAL_GetTick>
 80005ec:	1b80      	subs	r0, r0, r6
 80005ee:	2802      	cmp	r0, #2
 80005f0:	d9e5      	bls.n	80005be <HAL_RCC_OscConfig+0xee>
            return HAL_TIMEOUT;
 80005f2:	2003      	movs	r0, #3
}
 80005f4:	b002      	add	sp, #8
 80005f6:	e8bd 81f0 	ldmia.w	sp!, {r4, r5, r6, r7, r8, pc}
        __HAL_RCC_MSI_DISABLE();
 80005fa:	6823      	ldr	r3, [r4, #0]
 80005fc:	f023 0301 	bic.w	r3, r3, #1
 8000600:	6023      	str	r3, [r4, #0]
        tickstart = HAL_GetTick();
 8000602:	f7ff fe0b 	bl	800021c <HAL_GetTick>
 8000606:	4606      	mov	r6, r0
        while(READ_BIT(RCC->CR, RCC_CR_MSIRDY) != RESET)
 8000608:	6823      	ldr	r3, [r4, #0]
 800060a:	079f      	lsls	r7, r3, #30
 800060c:	d5a0      	bpl.n	8000550 <HAL_RCC_OscConfig+0x80>
          if((HAL_GetTick() - tickstart) > MSI_TIMEOUT_VALUE)
 800060e:	f7ff fe05 	bl	800021c <HAL_GetTick>
 8000612:	1b80      	subs	r0, r0, r6
 8000614:	2802      	cmp	r0, #2
 8000616:	d9f7      	bls.n	8000608 <HAL_RCC_OscConfig+0x138>
 8000618:	e7eb      	b.n	80005f2 <HAL_RCC_OscConfig+0x122>
    if((__HAL_RCC_GET_SYSCLK_SOURCE() == RCC_CFGR_SWS_HSE) ||
 800061a:	4c5c      	ldr	r4, [pc, #368]	; (800078c <HAL_RCC_OscConfig+0x2bc>)
 800061c:	68a3      	ldr	r3, [r4, #8]
 800061e:	f003 030c 	and.w	r3, r3, #12
 8000622:	2b08      	cmp	r3, #8
 8000624:	d009      	beq.n	800063a <HAL_RCC_OscConfig+0x16a>
       ((__HAL_RCC_GET_SYSCLK_SOURCE() == RCC_CFGR_SWS_PLL) && (__HAL_RCC_GET_PLL_OSCSOURCE() == RCC_PLLSOURCE_HSE)))
 8000626:	68a3      	ldr	r3, [r4, #8]
 8000628:	f003 030c 	and.w	r3, r3, #12
    if((__HAL_RCC_GET_SYSCLK_SOURCE() == RCC_CFGR_SWS_HSE) ||
 800062c:	2b0c      	cmp	r3, #12
 800062e:	d10b      	bne.n	8000648 <HAL_RCC_OscConfig+0x178>
       ((__HAL_RCC_GET_SYSCLK_SOURCE() == RCC_CFGR_SWS_PLL) && (__HAL_RCC_GET_PLL_OSCSOURCE() == RCC_PLLSOURCE_HSE)))
 8000630:	68e3      	ldr	r3, [r4, #12]
 8000632:	f003 0303 	and.w	r3, r3, #3
 8000636:	2b03      	cmp	r3, #3
 8000638:	d106      	bne.n	8000648 <HAL_RCC_OscConfig+0x178>
      if((READ_BIT(RCC->CR, RCC_CR_HSERDY) != RESET) && (RCC_OscInitStruct->HSEState == RCC_HSE_OFF))
 800063a:	6823      	ldr	r3, [r4, #0]
 800063c:	039a      	lsls	r2, r3, #14
 800063e:	d58a      	bpl.n	8000556 <HAL_RCC_OscConfig+0x86>
 8000640:	686b      	ldr	r3, [r5, #4]
 8000642:	2b00      	cmp	r3, #0
 8000644:	d187      	bne.n	8000556 <HAL_RCC_OscConfig+0x86>
 8000646:	e753      	b.n	80004f0 <HAL_RCC_OscConfig+0x20>
      __HAL_RCC_HSE_CONFIG(RCC_OscInitStruct->HSEState);
 8000648:	686b      	ldr	r3, [r5, #4]
 800064a:	f5b3 3f80 	cmp.w	r3, #65536	; 0x10000
 800064e:	d110      	bne.n	8000672 <HAL_RCC_OscConfig+0x1a2>
 8000650:	6823      	ldr	r3, [r4, #0]
 8000652:	f443 3380 	orr.w	r3, r3, #65536	; 0x10000
 8000656:	6023      	str	r3, [r4, #0]
        tickstart = HAL_GetTick();
 8000658:	f7ff fde0 	bl	800021c <HAL_GetTick>
 800065c:	4606      	mov	r6, r0
        while(READ_BIT(RCC->CR, RCC_CR_HSERDY) == RESET)
 800065e:	6823      	ldr	r3, [r4, #0]
 8000660:	039b      	lsls	r3, r3, #14
 8000662:	f53f af78 	bmi.w	8000556 <HAL_RCC_OscConfig+0x86>
          if((HAL_GetTick() - tickstart) > HSE_TIMEOUT_VALUE)
 8000666:	f7ff fdd9 	bl	800021c <HAL_GetTick>
 800066a:	1b80      	subs	r0, r0, r6
 800066c:	2864      	cmp	r0, #100	; 0x64
 800066e:	d9f6      	bls.n	800065e <HAL_RCC_OscConfig+0x18e>
 8000670:	e7bf      	b.n	80005f2 <HAL_RCC_OscConfig+0x122>
      __HAL_RCC_HSE_CONFIG(RCC_OscInitStruct->HSEState);
 8000672:	f5b3 2fa0 	cmp.w	r3, #327680	; 0x50000
 8000676:	d104      	bne.n	8000682 <HAL_RCC_OscConfig+0x1b2>
 8000678:	6823      	ldr	r3, [r4, #0]
 800067a:	f443 2380 	orr.w	r3, r3, #262144	; 0x40000
 800067e:	6023      	str	r3, [r4, #0]
 8000680:	e7e6      	b.n	8000650 <HAL_RCC_OscConfig+0x180>
 8000682:	6822      	ldr	r2, [r4, #0]
 8000684:	f422 3280 	bic.w	r2, r2, #65536	; 0x10000
 8000688:	6022      	str	r2, [r4, #0]
 800068a:	6822      	ldr	r2, [r4, #0]
 800068c:	f422 2280 	bic.w	r2, r2, #262144	; 0x40000
 8000690:	6022      	str	r2, [r4, #0]
      if(RCC_OscInitStruct->HSEState != RCC_HSE_OFF)
 8000692:	2b00      	cmp	r3, #0
 8000694:	d1e0      	bne.n	8000658 <HAL_RCC_OscConfig+0x188>
        tickstart = HAL_GetTick();
 8000696:	f7ff fdc1 	bl	800021c <HAL_GetTick>
 800069a:	4606      	mov	r6, r0
        while(READ_BIT(RCC->CR, RCC_CR_HSERDY) != RESET)
 800069c:	6823      	ldr	r3, [r4, #0]
 800069e:	039f      	lsls	r7, r3, #14
 80006a0:	f57f af59 	bpl.w	8000556 <HAL_RCC_OscConfig+0x86>
          if((HAL_GetTick() - tickstart) > HSE_TIMEOUT_VALUE)
 80006a4:	f7ff fdba 	bl	800021c <HAL_GetTick>
 80006a8:	1b80      	subs	r0, r0, r6
 80006aa:	2864      	cmp	r0, #100	; 0x64
 80006ac:	d9f6      	bls.n	800069c <HAL_RCC_OscConfig+0x1cc>
 80006ae:	e7a0      	b.n	80005f2 <HAL_RCC_OscConfig+0x122>
    if((__HAL_RCC_GET_SYSCLK_SOURCE() == RCC_CFGR_SWS_HSI) ||
 80006b0:	4c36      	ldr	r4, [pc, #216]	; (800078c <HAL_RCC_OscConfig+0x2bc>)
 80006b2:	68a3      	ldr	r3, [r4, #8]
 80006b4:	f003 030c 	and.w	r3, r3, #12
 80006b8:	2b04      	cmp	r3, #4
 80006ba:	d009      	beq.n	80006d0 <HAL_RCC_OscConfig+0x200>
       ((__HAL_RCC_GET_SYSCLK_SOURCE() == RCC_CFGR_SWS_PLL) && (__HAL_RCC_GET_PLL_OSCSOURCE() == RCC_PLLSOURCE_HSI)))
 80006bc:	68a3      	ldr	r3, [r4, #8]
 80006be:	f003 030c 	and.w	r3, r3, #12
    if((__HAL_RCC_GET_SYSCLK_SOURCE() == RCC_CFGR_SWS_HSI) ||
 80006c2:	2b0c      	cmp	r3, #12
 80006c4:	d113      	bne.n	80006ee <HAL_RCC_OscConfig+0x21e>
       ((__HAL_RCC_GET_SYSCLK_SOURCE() == RCC_CFGR_SWS_PLL) && (__HAL_RCC_GET_PLL_OSCSOURCE() == RCC_PLLSOURCE_HSI)))
 80006c6:	68e3      	ldr	r3, [r4, #12]
 80006c8:	f003 0303 	and.w	r3, r3, #3
 80006cc:	2b02      	cmp	r3, #2
 80006ce:	d10e      	bne.n	80006ee <HAL_RCC_OscConfig+0x21e>
      if((READ_BIT(RCC->CR, RCC_CR_HSIRDY) != RESET) && (RCC_OscInitStruct->HSIState == RCC_HSI_OFF))
 80006d0:	6823      	ldr	r3, [r4, #0]
 80006d2:	055e      	lsls	r6, r3, #21
 80006d4:	d503      	bpl.n	80006de <HAL_RCC_OscConfig+0x20e>
 80006d6:	68eb      	ldr	r3, [r5, #12]
 80006d8:	2b00      	cmp	r3, #0
 80006da:	f43f af09 	beq.w	80004f0 <HAL_RCC_OscConfig+0x20>
        __HAL_RCC_HSI_CALIBRATIONVALUE_ADJUST(RCC_OscInitStruct->HSICalibrationValue);
 80006de:	6863      	ldr	r3, [r4, #4]
 80006e0:	692a      	ldr	r2, [r5, #16]
 80006e2:	f023 53f8 	bic.w	r3, r3, #520093696	; 0x1f000000
 80006e6:	ea43 6302 	orr.w	r3, r3, r2, lsl #24
 80006ea:	6063      	str	r3, [r4, #4]
 80006ec:	e737      	b.n	800055e <HAL_RCC_OscConfig+0x8e>
      if(RCC_OscInitStruct->HSIState != RCC_HSI_OFF)
 80006ee:	68eb      	ldr	r3, [r5, #12]
 80006f0:	b17b      	cbz	r3, 8000712 <HAL_RCC_OscConfig+0x242>
        __HAL_RCC_HSI_ENABLE();
 80006f2:	6823      	ldr	r3, [r4, #0]
 80006f4:	f443 7380 	orr.w	r3, r3, #256	; 0x100
 80006f8:	6023      	str	r3, [r4, #0]
        tickstart = HAL_GetTick();
 80006fa:	f7ff fd8f 	bl	800021c <HAL_GetTick>
 80006fe:	4606      	mov	r6, r0
        while(READ_BIT(RCC->CR, RCC_CR_HSIRDY) == RESET)
 8000700:	6823      	ldr	r3, [r4, #0]
 8000702:	0558      	lsls	r0, r3, #21
 8000704:	d4eb      	bmi.n	80006de <HAL_RCC_OscConfig+0x20e>
          if((HAL_GetTick() - tickstart) > HSI_TIMEOUT_VALUE)
 8000706:	f7ff fd89 	bl	800021c <HAL_GetTick>
 800070a:	1b80      	subs	r0, r0, r6
 800070c:	2802      	cmp	r0, #2
 800070e:	d9f7      	bls.n	8000700 <HAL_RCC_OscConfig+0x230>
 8000710:	e76f      	b.n	80005f2 <HAL_RCC_OscConfig+0x122>
        __HAL_RCC_HSI_DISABLE();
 8000712:	6823      	ldr	r3, [r4, #0]
 8000714:	f423 7380 	bic.w	r3, r3, #256	; 0x100
 8000718:	6023      	str	r3, [r4, #0]
        tickstart = HAL_GetTick();
 800071a:	f7ff fd7f 	bl	800021c <HAL_GetTick>
 800071e:	4606      	mov	r6, r0
        while(READ_BIT(RCC->CR, RCC_CR_HSIRDY) != RESET)
 8000720:	6823      	ldr	r3, [r4, #0]
 8000722:	0559      	lsls	r1, r3, #21
 8000724:	f57f af1b 	bpl.w	800055e <HAL_RCC_OscConfig+0x8e>
          if((HAL_GetTick() - tickstart) > HSI_TIMEOUT_VALUE)
 8000728:	f7ff fd78 	bl	800021c <HAL_GetTick>
 800072c:	1b80      	subs	r0, r0, r6
 800072e:	2802      	cmp	r0, #2
 8000730:	d9f6      	bls.n	8000720 <HAL_RCC_OscConfig+0x250>
 8000732:	e75e      	b.n	80005f2 <HAL_RCC_OscConfig+0x122>
    if(RCC_OscInitStruct->LSIState != RCC_LSI_OFF)
 8000734:	696b      	ldr	r3, [r5, #20]
 8000736:	4c15      	ldr	r4, [pc, #84]	; (800078c <HAL_RCC_OscConfig+0x2bc>)
 8000738:	b19b      	cbz	r3, 8000762 <HAL_RCC_OscConfig+0x292>
      __HAL_RCC_LSI_ENABLE();
 800073a:	f8d4 3094 	ldr.w	r3, [r4, #148]	; 0x94
 800073e:	f043 0301 	orr.w	r3, r3, #1
 8000742:	f8c4 3094 	str.w	r3, [r4, #148]	; 0x94
      tickstart = HAL_GetTick();
 8000746:	f7ff fd69 	bl	800021c <HAL_GetTick>
 800074a:	4606      	mov	r6, r0
      while(READ_BIT(RCC->CSR, RCC_CSR_LSIRDY) == RESET)
 800074c:	f8d4 3094 	ldr.w	r3, [r4, #148]	; 0x94
 8000750:	079f      	lsls	r7, r3, #30
 8000752:	f53f af08 	bmi.w	8000566 <HAL_RCC_OscConfig+0x96>
        if((HAL_GetTick() - tickstart) > LSI_TIMEOUT_VALUE)
 8000756:	f7ff fd61 	bl	800021c <HAL_GetTick>
 800075a:	1b80      	subs	r0, r0, r6
 800075c:	2802      	cmp	r0, #2
 800075e:	d9f5      	bls.n	800074c <HAL_RCC_OscConfig+0x27c>
 8000760:	e747      	b.n	80005f2 <HAL_RCC_OscConfig+0x122>
      __HAL_RCC_LSI_DISABLE();
 8000762:	f8d4 3094 	ldr.w	r3, [r4, #148]	; 0x94
 8000766:	f023 0301 	bic.w	r3, r3, #1
 800076a:	f8c4 3094 	str.w	r3, [r4, #148]	; 0x94
      tickstart = HAL_GetTick();
 800076e:	f7ff fd55 	bl	800021c <HAL_GetTick>
 8000772:	4606      	mov	r6, r0
      while(READ_BIT(RCC->CSR, RCC_CSR_LSIRDY) != RESET)
 8000774:	f8d4 3094 	ldr.w	r3, [r4, #148]	; 0x94
 8000778:	0798      	lsls	r0, r3, #30
 800077a:	f57f aef4 	bpl.w	8000566 <HAL_RCC_OscConfig+0x96>
        if((HAL_GetTick() - tickstart) > LSI_TIMEOUT_VALUE)
 800077e:	f7ff fd4d 	bl	800021c <HAL_GetTick>
 8000782:	1b80      	subs	r0, r0, r6
 8000784:	2802      	cmp	r0, #2
 8000786:	d9f5      	bls.n	8000774 <HAL_RCC_OscConfig+0x2a4>
 8000788:	e733      	b.n	80005f2 <HAL_RCC_OscConfig+0x122>
 800078a:	bf00      	nop
 800078c:	40021000 	.word	0x40021000
 8000790:	080029a4 	.word	0x080029a4
 8000794:	20000430 	.word	0x20000430
    if(HAL_IS_BIT_CLR(RCC->APB1ENR1, RCC_APB1ENR1_PWREN))
 8000798:	4c79      	ldr	r4, [pc, #484]	; (8000980 <HAL_RCC_OscConfig+0x4b0>)
 800079a:	6da3      	ldr	r3, [r4, #88]	; 0x58
 800079c:	00d9      	lsls	r1, r3, #3
 800079e:	d427      	bmi.n	80007f0 <HAL_RCC_OscConfig+0x320>
      __HAL_RCC_PWR_CLK_ENABLE();
 80007a0:	6da3      	ldr	r3, [r4, #88]	; 0x58
 80007a2:	f043 5380 	orr.w	r3, r3, #268435456	; 0x10000000
 80007a6:	65a3      	str	r3, [r4, #88]	; 0x58
 80007a8:	6da3      	ldr	r3, [r4, #88]	; 0x58
 80007aa:	f003 5380 	and.w	r3, r3, #268435456	; 0x10000000
 80007ae:	9301      	str	r3, [sp, #4]
 80007b0:	9b01      	ldr	r3, [sp, #4]
      pwrclkchanged = SET;
 80007b2:	2701      	movs	r7, #1
    if(HAL_IS_BIT_CLR(PWR->CR1, PWR_CR1_DBP))
 80007b4:	4e73      	ldr	r6, [pc, #460]	; (8000984 <HAL_RCC_OscConfig+0x4b4>)
 80007b6:	6833      	ldr	r3, [r6, #0]
 80007b8:	05da      	lsls	r2, r3, #23
 80007ba:	d51b      	bpl.n	80007f4 <HAL_RCC_OscConfig+0x324>
    __HAL_RCC_LSE_CONFIG(RCC_OscInitStruct->LSEState);
 80007bc:	68ab      	ldr	r3, [r5, #8]
 80007be:	2b01      	cmp	r3, #1
 80007c0:	d129      	bne.n	8000816 <HAL_RCC_OscConfig+0x346>
 80007c2:	f8d4 3090 	ldr.w	r3, [r4, #144]	; 0x90
 80007c6:	f043 0301 	orr.w	r3, r3, #1
 80007ca:	f8c4 3090 	str.w	r3, [r4, #144]	; 0x90
      tickstart = HAL_GetTick();
 80007ce:	f7ff fd25 	bl	800021c <HAL_GetTick>
        if((HAL_GetTick() - tickstart) > RCC_LSE_TIMEOUT_VALUE)
 80007d2:	f241 3888 	movw	r8, #5000	; 0x1388
      tickstart = HAL_GetTick();
 80007d6:	4606      	mov	r6, r0
      while(READ_BIT(RCC->BDCR, RCC_BDCR_LSERDY) == RESET)
 80007d8:	f8d4 3090 	ldr.w	r3, [r4, #144]	; 0x90
 80007dc:	0798      	lsls	r0, r3, #30
 80007de:	d540      	bpl.n	8000862 <HAL_RCC_OscConfig+0x392>
    if(pwrclkchanged == SET)
 80007e0:	2f00      	cmp	r7, #0
 80007e2:	f43f aec4 	beq.w	800056e <HAL_RCC_OscConfig+0x9e>
      __HAL_RCC_PWR_CLK_DISABLE();
 80007e6:	6da3      	ldr	r3, [r4, #88]	; 0x58
 80007e8:	f023 5380 	bic.w	r3, r3, #268435456	; 0x10000000
 80007ec:	65a3      	str	r3, [r4, #88]	; 0x58
 80007ee:	e6be      	b.n	800056e <HAL_RCC_OscConfig+0x9e>
    FlagStatus       pwrclkchanged = RESET;
 80007f0:	2700      	movs	r7, #0
 80007f2:	e7df      	b.n	80007b4 <HAL_RCC_OscConfig+0x2e4>
      SET_BIT(PWR->CR1, PWR_CR1_DBP);
 80007f4:	6833      	ldr	r3, [r6, #0]
 80007f6:	f443 7380 	orr.w	r3, r3, #256	; 0x100
 80007fa:	6033      	str	r3, [r6, #0]
      tickstart = HAL_GetTick();
 80007fc:	f7ff fd0e 	bl	800021c <HAL_GetTick>
 8000800:	4680      	mov	r8, r0
      while(HAL_IS_BIT_CLR(PWR->CR1, PWR_CR1_DBP))
 8000802:	6833      	ldr	r3, [r6, #0]
 8000804:	05db      	lsls	r3, r3, #23
 8000806:	d4d9      	bmi.n	80007bc <HAL_RCC_OscConfig+0x2ec>
        if((HAL_GetTick() - tickstart) > RCC_DBP_TIMEOUT_VALUE)
 8000808:	f7ff fd08 	bl	800021c <HAL_GetTick>
 800080c:	eba0 0008 	sub.w	r0, r0, r8
 8000810:	2802      	cmp	r0, #2
 8000812:	d9f6      	bls.n	8000802 <HAL_RCC_OscConfig+0x332>
 8000814:	e6ed      	b.n	80005f2 <HAL_RCC_OscConfig+0x122>
    __HAL_RCC_LSE_CONFIG(RCC_OscInitStruct->LSEState);
 8000816:	2b05      	cmp	r3, #5
 8000818:	d106      	bne.n	8000828 <HAL_RCC_OscConfig+0x358>
 800081a:	f8d4 3090 	ldr.w	r3, [r4, #144]	; 0x90
 800081e:	f043 0304 	orr.w	r3, r3, #4
 8000822:	f8c4 3090 	str.w	r3, [r4, #144]	; 0x90
 8000826:	e7cc      	b.n	80007c2 <HAL_RCC_OscConfig+0x2f2>
 8000828:	f8d4 2090 	ldr.w	r2, [r4, #144]	; 0x90
 800082c:	f022 0201 	bic.w	r2, r2, #1
 8000830:	f8c4 2090 	str.w	r2, [r4, #144]	; 0x90
 8000834:	f8d4 2090 	ldr.w	r2, [r4, #144]	; 0x90
 8000838:	f022 0204 	bic.w	r2, r2, #4
 800083c:	f8c4 2090 	str.w	r2, [r4, #144]	; 0x90
    if(RCC_OscInitStruct->LSEState != RCC_LSE_OFF)
 8000840:	2b00      	cmp	r3, #0
 8000842:	d1c4      	bne.n	80007ce <HAL_RCC_OscConfig+0x2fe>
      tickstart = HAL_GetTick();
 8000844:	f7ff fcea 	bl	800021c <HAL_GetTick>
        if((HAL_GetTick() - tickstart) > RCC_LSE_TIMEOUT_VALUE)
 8000848:	f241 3888 	movw	r8, #5000	; 0x1388
      tickstart = HAL_GetTick();
 800084c:	4606      	mov	r6, r0
      while(READ_BIT(RCC->BDCR, RCC_BDCR_LSERDY) != RESET)
 800084e:	f8d4 3090 	ldr.w	r3, [r4, #144]	; 0x90
 8000852:	0799      	lsls	r1, r3, #30
 8000854:	d5c4      	bpl.n	80007e0 <HAL_RCC_OscConfig+0x310>
        if((HAL_GetTick() - tickstart) > RCC_LSE_TIMEOUT_VALUE)
 8000856:	f7ff fce1 	bl	800021c <HAL_GetTick>
 800085a:	1b80      	subs	r0, r0, r6
 800085c:	4540      	cmp	r0, r8
 800085e:	d9f6      	bls.n	800084e <HAL_RCC_OscConfig+0x37e>
 8000860:	e6c7      	b.n	80005f2 <HAL_RCC_OscConfig+0x122>
        if((HAL_GetTick() - tickstart) > RCC_LSE_TIMEOUT_VALUE)
 8000862:	f7ff fcdb 	bl	800021c <HAL_GetTick>
 8000866:	1b80      	subs	r0, r0, r6
 8000868:	4540      	cmp	r0, r8
 800086a:	d9b5      	bls.n	80007d8 <HAL_RCC_OscConfig+0x308>
 800086c:	e6c1      	b.n	80005f2 <HAL_RCC_OscConfig+0x122>
    if(RCC_OscInitStruct->HSI48State != RCC_HSI48_OFF)
 800086e:	6a6b      	ldr	r3, [r5, #36]	; 0x24
 8000870:	4c43      	ldr	r4, [pc, #268]	; (8000980 <HAL_RCC_OscConfig+0x4b0>)
 8000872:	b19b      	cbz	r3, 800089c <HAL_RCC_OscConfig+0x3cc>
      __HAL_RCC_HSI48_ENABLE();
 8000874:	f8d4 3098 	ldr.w	r3, [r4, #152]	; 0x98
 8000878:	f043 0301 	orr.w	r3, r3, #1
 800087c:	f8c4 3098 	str.w	r3, [r4, #152]	; 0x98
      tickstart = HAL_GetTick();
 8000880:	f7ff fccc 	bl	800021c <HAL_GetTick>
 8000884:	4606      	mov	r6, r0
      while(READ_BIT(RCC->CRRCR, RCC_CRRCR_HSI48RDY) == RESET)
 8000886:	f8d4 3098 	ldr.w	r3, [r4, #152]	; 0x98
 800088a:	079b      	lsls	r3, r3, #30
 800088c:	f53f ae73 	bmi.w	8000576 <HAL_RCC_OscConfig+0xa6>
        if((HAL_GetTick() - tickstart) > HSI48_TIMEOUT_VALUE)
 8000890:	f7ff fcc4 	bl	800021c <HAL_GetTick>
 8000894:	1b80      	subs	r0, r0, r6
 8000896:	2802      	cmp	r0, #2
 8000898:	d9f5      	bls.n	8000886 <HAL_RCC_OscConfig+0x3b6>
 800089a:	e6aa      	b.n	80005f2 <HAL_RCC_OscConfig+0x122>
      __HAL_RCC_HSI48_DISABLE();
 800089c:	f8d4 3098 	ldr.w	r3, [r4, #152]	; 0x98
 80008a0:	f023 0301 	bic.w	r3, r3, #1
 80008a4:	f8c4 3098 	str.w	r3, [r4, #152]	; 0x98
      tickstart = HAL_GetTick();
 80008a8:	f7ff fcb8 	bl	800021c <HAL_GetTick>
 80008ac:	4606      	mov	r6, r0
      while(READ_BIT(RCC->CRRCR, RCC_CRRCR_HSI48RDY) != RESET)
 80008ae:	f8d4 3098 	ldr.w	r3, [r4, #152]	; 0x98
 80008b2:	079f      	lsls	r7, r3, #30
 80008b4:	f57f ae5f 	bpl.w	8000576 <HAL_RCC_OscConfig+0xa6>
        if((HAL_GetTick() - tickstart) > HSI48_TIMEOUT_VALUE)
 80008b8:	f7ff fcb0 	bl	800021c <HAL_GetTick>
 80008bc:	1b80      	subs	r0, r0, r6
 80008be:	2802      	cmp	r0, #2
 80008c0:	d9f5      	bls.n	80008ae <HAL_RCC_OscConfig+0x3de>
 80008c2:	e696      	b.n	80005f2 <HAL_RCC_OscConfig+0x122>
    if(__HAL_RCC_GET_SYSCLK_SOURCE() != RCC_CFGR_SWS_PLL)
 80008c4:	4c2e      	ldr	r4, [pc, #184]	; (8000980 <HAL_RCC_OscConfig+0x4b0>)
 80008c6:	68a3      	ldr	r3, [r4, #8]
 80008c8:	f003 030c 	and.w	r3, r3, #12
 80008cc:	2b0c      	cmp	r3, #12
 80008ce:	f43f ae0f 	beq.w	80004f0 <HAL_RCC_OscConfig+0x20>
        __HAL_RCC_PLL_DISABLE();
 80008d2:	6823      	ldr	r3, [r4, #0]
      if(RCC_OscInitStruct->PLL.PLLState == RCC_PLL_ON)
 80008d4:	2a02      	cmp	r2, #2
        __HAL_RCC_PLL_DISABLE();
 80008d6:	f023 7380 	bic.w	r3, r3, #16777216	; 0x1000000
 80008da:	6023      	str	r3, [r4, #0]
      if(RCC_OscInitStruct->PLL.PLLState == RCC_PLL_ON)
 80008dc:	d136      	bne.n	800094c <HAL_RCC_OscConfig+0x47c>
        tickstart = HAL_GetTick();
 80008de:	f7ff fc9d 	bl	800021c <HAL_GetTick>
 80008e2:	4606      	mov	r6, r0
        while(READ_BIT(RCC->CR, RCC_CR_PLLRDY) != RESET)
 80008e4:	6823      	ldr	r3, [r4, #0]
 80008e6:	0198      	lsls	r0, r3, #6
 80008e8:	d42a      	bmi.n	8000940 <HAL_RCC_OscConfig+0x470>
        __HAL_RCC_PLL_CONFIG(RCC_OscInitStruct->PLL.PLLSource,
 80008ea:	6bab      	ldr	r3, [r5, #56]	; 0x38
 80008ec:	6b6a      	ldr	r2, [r5, #52]	; 0x34
 80008ee:	06db      	lsls	r3, r3, #27
 80008f0:	ea43 2302 	orr.w	r3, r3, r2, lsl #8
 80008f4:	6aea      	ldr	r2, [r5, #44]	; 0x2c
 80008f6:	4313      	orrs	r3, r2
 80008f8:	6b2a      	ldr	r2, [r5, #48]	; 0x30
 80008fa:	3a01      	subs	r2, #1
 80008fc:	ea43 1302 	orr.w	r3, r3, r2, lsl #4
 8000900:	6bea      	ldr	r2, [r5, #60]	; 0x3c
 8000902:	0852      	lsrs	r2, r2, #1
 8000904:	3a01      	subs	r2, #1
 8000906:	ea43 5342 	orr.w	r3, r3, r2, lsl #21
 800090a:	6c2a      	ldr	r2, [r5, #64]	; 0x40
 800090c:	0852      	lsrs	r2, r2, #1
 800090e:	3a01      	subs	r2, #1
 8000910:	ea43 6342 	orr.w	r3, r3, r2, lsl #25
 8000914:	60e3      	str	r3, [r4, #12]
        __HAL_RCC_PLL_ENABLE();
 8000916:	6823      	ldr	r3, [r4, #0]
 8000918:	f043 7380 	orr.w	r3, r3, #16777216	; 0x1000000
 800091c:	6023      	str	r3, [r4, #0]
         __HAL_RCC_PLLCLKOUT_ENABLE(RCC_PLL_SYSCLK);
 800091e:	68e3      	ldr	r3, [r4, #12]
 8000920:	f043 7380 	orr.w	r3, r3, #16777216	; 0x1000000
 8000924:	60e3      	str	r3, [r4, #12]
        tickstart = HAL_GetTick();
 8000926:	f7ff fc79 	bl	800021c <HAL_GetTick>
 800092a:	4605      	mov	r5, r0
        while(READ_BIT(RCC->CR, RCC_CR_PLLRDY) == RESET)
 800092c:	6823      	ldr	r3, [r4, #0]
 800092e:	0199      	lsls	r1, r3, #6
 8000930:	f53f ae25 	bmi.w	800057e <HAL_RCC_OscConfig+0xae>
          if((HAL_GetTick() - tickstart) > PLL_TIMEOUT_VALUE)
 8000934:	f7ff fc72 	bl	800021c <HAL_GetTick>
 8000938:	1b40      	subs	r0, r0, r5
 800093a:	2802      	cmp	r0, #2
 800093c:	d9f6      	bls.n	800092c <HAL_RCC_OscConfig+0x45c>
 800093e:	e658      	b.n	80005f2 <HAL_RCC_OscConfig+0x122>
          if((HAL_GetTick() - tickstart) > PLL_TIMEOUT_VALUE)
 8000940:	f7ff fc6c 	bl	800021c <HAL_GetTick>
 8000944:	1b80      	subs	r0, r0, r6
 8000946:	2802      	cmp	r0, #2
 8000948:	d9cc      	bls.n	80008e4 <HAL_RCC_OscConfig+0x414>
 800094a:	e652      	b.n	80005f2 <HAL_RCC_OscConfig+0x122>
        if((READ_BIT(RCC->CR, RCC_CR_PLLSAI1RDY) == RESET)
 800094c:	6823      	ldr	r3, [r4, #0]
 800094e:	011a      	lsls	r2, r3, #4
          MODIFY_REG(RCC->PLLCFGR, RCC_PLLCFGR_PLLSRC, RCC_PLLSOURCE_NONE);
 8000950:	bf5e      	ittt	pl
 8000952:	68e3      	ldrpl	r3, [r4, #12]
 8000954:	f023 0303 	bicpl.w	r3, r3, #3
 8000958:	60e3      	strpl	r3, [r4, #12]
        __HAL_RCC_PLLCLKOUT_DISABLE(RCC_PLL_SYSCLK | RCC_PLL_48M1CLK | RCC_PLL_SAI2CLK);
 800095a:	68e3      	ldr	r3, [r4, #12]
 800095c:	f023 7388 	bic.w	r3, r3, #17825792	; 0x1100000
 8000960:	f423 3380 	bic.w	r3, r3, #65536	; 0x10000
 8000964:	60e3      	str	r3, [r4, #12]
        tickstart = HAL_GetTick();
 8000966:	f7ff fc59 	bl	800021c <HAL_GetTick>
 800096a:	4605      	mov	r5, r0
        while(READ_BIT(RCC->CR, RCC_CR_PLLRDY) != RESET)
 800096c:	6823      	ldr	r3, [r4, #0]
 800096e:	019b      	lsls	r3, r3, #6
 8000970:	f57f ae05 	bpl.w	800057e <HAL_RCC_OscConfig+0xae>
          if((HAL_GetTick() - tickstart) > PLL_TIMEOUT_VALUE)
 8000974:	f7ff fc52 	bl	800021c <HAL_GetTick>
 8000978:	1b40      	subs	r0, r0, r5
 800097a:	2802      	cmp	r0, #2
 800097c:	d9f6      	bls.n	800096c <HAL_RCC_OscConfig+0x49c>
 800097e:	e638      	b.n	80005f2 <HAL_RCC_OscConfig+0x122>
 8000980:	40021000 	.word	0x40021000
 8000984:	40007000 	.word	0x40007000

08000988 <HAL_RCC_ClockConfig>:
  if(FLatency > READ_BIT(FLASH->ACR, FLASH_ACR_LATENCY))
 8000988:	4a56      	ldr	r2, [pc, #344]	; (8000ae4 <HAL_RCC_ClockConfig+0x15c>)
 800098a:	6813      	ldr	r3, [r2, #0]
 800098c:	f003 0307 	and.w	r3, r3, #7
 8000990:	428b      	cmp	r3, r1
{
 8000992:	e92d 41f0 	stmdb	sp!, {r4, r5, r6, r7, r8, lr}
 8000996:	4605      	mov	r5, r0
 8000998:	460e      	mov	r6, r1
  if(FLatency > READ_BIT(FLASH->ACR, FLASH_ACR_LATENCY))
 800099a:	d32b      	bcc.n	80009f4 <HAL_RCC_ClockConfig+0x6c>
  if(((RCC_ClkInitStruct->ClockType) & RCC_CLOCKTYPE_SYSCLK) == RCC_CLOCKTYPE_SYSCLK)
 800099c:	682b      	ldr	r3, [r5, #0]
 800099e:	07d9      	lsls	r1, r3, #31
 80009a0:	d435      	bmi.n	8000a0e <HAL_RCC_ClockConfig+0x86>
  if(((RCC_ClkInitStruct->ClockType) & RCC_CLOCKTYPE_HCLK) == RCC_CLOCKTYPE_HCLK)
 80009a2:	6829      	ldr	r1, [r5, #0]
 80009a4:	078a      	lsls	r2, r1, #30
 80009a6:	f100 8083 	bmi.w	8000ab0 <HAL_RCC_ClockConfig+0x128>
  if(FLatency < READ_BIT(FLASH->ACR, FLASH_ACR_LATENCY))
 80009aa:	4a4e      	ldr	r2, [pc, #312]	; (8000ae4 <HAL_RCC_ClockConfig+0x15c>)
 80009ac:	6813      	ldr	r3, [r2, #0]
 80009ae:	f003 0307 	and.w	r3, r3, #7
 80009b2:	429e      	cmp	r6, r3
 80009b4:	f0c0 8084 	bcc.w	8000ac0 <HAL_RCC_ClockConfig+0x138>
  if(((RCC_ClkInitStruct->ClockType) & RCC_CLOCKTYPE_PCLK1) == RCC_CLOCKTYPE_PCLK1)
 80009b8:	f011 0f04 	tst.w	r1, #4
 80009bc:	4c4a      	ldr	r4, [pc, #296]	; (8000ae8 <HAL_RCC_ClockConfig+0x160>)
 80009be:	f040 808a 	bne.w	8000ad6 <HAL_RCC_ClockConfig+0x14e>
  if(((RCC_ClkInitStruct->ClockType) & RCC_CLOCKTYPE_PCLK2) == RCC_CLOCKTYPE_PCLK2)
 80009c2:	070b      	lsls	r3, r1, #28
 80009c4:	d506      	bpl.n	80009d4 <HAL_RCC_ClockConfig+0x4c>
    MODIFY_REG(RCC->CFGR, RCC_CFGR_PPRE2, ((RCC_ClkInitStruct->APB2CLKDivider) << 3U));
 80009c6:	68a3      	ldr	r3, [r4, #8]
 80009c8:	692a      	ldr	r2, [r5, #16]
 80009ca:	f423 5360 	bic.w	r3, r3, #14336	; 0x3800
 80009ce:	ea43 03c2 	orr.w	r3, r3, r2, lsl #3
 80009d2:	60a3      	str	r3, [r4, #8]
  SystemCoreClock = HAL_RCC_GetSysClockFreq() >> AHBPrescTable[READ_BIT(RCC->CFGR, RCC_CFGR_HPRE) >> RCC_CFGR_HPRE_Pos];
 80009d4:	f7ff fd14 	bl	8000400 <HAL_RCC_GetSysClockFreq>
 80009d8:	68a3      	ldr	r3, [r4, #8]
 80009da:	4a44      	ldr	r2, [pc, #272]	; (8000aec <HAL_RCC_ClockConfig+0x164>)
 80009dc:	f3c3 1303 	ubfx	r3, r3, #4, #4
 80009e0:	5cd3      	ldrb	r3, [r2, r3]
 80009e2:	40d8      	lsrs	r0, r3
 80009e4:	4b42      	ldr	r3, [pc, #264]	; (8000af0 <HAL_RCC_ClockConfig+0x168>)
 80009e6:	6018      	str	r0, [r3, #0]
  HAL_InitTick (TICK_INT_PRIORITY);
 80009e8:	2000      	movs	r0, #0
 80009ea:	f7ff fbef 	bl	80001cc <HAL_InitTick>
  return HAL_OK;
 80009ee:	2000      	movs	r0, #0
}
 80009f0:	e8bd 81f0 	ldmia.w	sp!, {r4, r5, r6, r7, r8, pc}
    __HAL_FLASH_SET_LATENCY(FLatency);
 80009f4:	6813      	ldr	r3, [r2, #0]
 80009f6:	f023 0307 	bic.w	r3, r3, #7
 80009fa:	430b      	orrs	r3, r1
 80009fc:	6013      	str	r3, [r2, #0]
    if(READ_BIT(FLASH->ACR, FLASH_ACR_LATENCY) != FLatency)
 80009fe:	6813      	ldr	r3, [r2, #0]
 8000a00:	f003 0307 	and.w	r3, r3, #7
 8000a04:	4299      	cmp	r1, r3
 8000a06:	d0c9      	beq.n	800099c <HAL_RCC_ClockConfig+0x14>
      return HAL_ERROR;
 8000a08:	2001      	movs	r0, #1
 8000a0a:	e8bd 81f0 	ldmia.w	sp!, {r4, r5, r6, r7, r8, pc}
    if(RCC_ClkInitStruct->SYSCLKSource == RCC_SYSCLKSOURCE_PLLCLK)
 8000a0e:	686a      	ldr	r2, [r5, #4]
 8000a10:	4c35      	ldr	r4, [pc, #212]	; (8000ae8 <HAL_RCC_ClockConfig+0x160>)
 8000a12:	2a03      	cmp	r2, #3
      if(READ_BIT(RCC->CR, RCC_CR_PLLRDY) == RESET)
 8000a14:	6823      	ldr	r3, [r4, #0]
    if(RCC_ClkInitStruct->SYSCLKSource == RCC_SYSCLKSOURCE_PLLCLK)
 8000a16:	d11c      	bne.n	8000a52 <HAL_RCC_ClockConfig+0xca>
      if(READ_BIT(RCC->CR, RCC_CR_PLLRDY) == RESET)
 8000a18:	f013 7f00 	tst.w	r3, #33554432	; 0x2000000
        if(READ_BIT(RCC->CR, RCC_CR_HSIRDY) == RESET)
 8000a1c:	d0f4      	beq.n	8000a08 <HAL_RCC_ClockConfig+0x80>
    MODIFY_REG(RCC->CFGR, RCC_CFGR_SW, RCC_ClkInitStruct->SYSCLKSource);
 8000a1e:	68a3      	ldr	r3, [r4, #8]
 8000a20:	f023 0303 	bic.w	r3, r3, #3
 8000a24:	4313      	orrs	r3, r2
 8000a26:	60a3      	str	r3, [r4, #8]
    tickstart = HAL_GetTick();
 8000a28:	f7ff fbf8 	bl	800021c <HAL_GetTick>
    if(RCC_ClkInitStruct->SYSCLKSource == RCC_SYSCLKSOURCE_PLLCLK)
 8000a2c:	686b      	ldr	r3, [r5, #4]
 8000a2e:	2b03      	cmp	r3, #3
    tickstart = HAL_GetTick();
 8000a30:	4607      	mov	r7, r0
        if((HAL_GetTick() - tickstart) > CLOCKSWITCH_TIMEOUT_VALUE)
 8000a32:	f241 3888 	movw	r8, #5000	; 0x1388
    if(RCC_ClkInitStruct->SYSCLKSource == RCC_SYSCLKSOURCE_PLLCLK)
 8000a36:	d118      	bne.n	8000a6a <HAL_RCC_ClockConfig+0xe2>
      while (__HAL_RCC_GET_SYSCLK_SOURCE() != RCC_CFGR_SWS_PLL)
 8000a38:	68a3      	ldr	r3, [r4, #8]
 8000a3a:	f003 030c 	and.w	r3, r3, #12
 8000a3e:	2b0c      	cmp	r3, #12
 8000a40:	d0af      	beq.n	80009a2 <HAL_RCC_ClockConfig+0x1a>
        if((HAL_GetTick() - tickstart) > CLOCKSWITCH_TIMEOUT_VALUE)
 8000a42:	f7ff fbeb 	bl	800021c <HAL_GetTick>
 8000a46:	1bc0      	subs	r0, r0, r7
 8000a48:	4540      	cmp	r0, r8
 8000a4a:	d9f5      	bls.n	8000a38 <HAL_RCC_ClockConfig+0xb0>
          return HAL_TIMEOUT;
 8000a4c:	2003      	movs	r0, #3
 8000a4e:	e8bd 81f0 	ldmia.w	sp!, {r4, r5, r6, r7, r8, pc}
      if(RCC_ClkInitStruct->SYSCLKSource == RCC_SYSCLKSOURCE_HSE)
 8000a52:	2a02      	cmp	r2, #2
 8000a54:	d102      	bne.n	8000a5c <HAL_RCC_ClockConfig+0xd4>
        if(READ_BIT(RCC->CR, RCC_CR_HSERDY) == RESET)
 8000a56:	f413 3f00 	tst.w	r3, #131072	; 0x20000
 8000a5a:	e7df      	b.n	8000a1c <HAL_RCC_ClockConfig+0x94>
      else if(RCC_ClkInitStruct->SYSCLKSource == RCC_SYSCLKSOURCE_MSI)
 8000a5c:	b912      	cbnz	r2, 8000a64 <HAL_RCC_ClockConfig+0xdc>
        if(READ_BIT(RCC->CR, RCC_CR_MSIRDY) == RESET)
 8000a5e:	f013 0f02 	tst.w	r3, #2
 8000a62:	e7db      	b.n	8000a1c <HAL_RCC_ClockConfig+0x94>
        if(READ_BIT(RCC->CR, RCC_CR_HSIRDY) == RESET)
 8000a64:	f413 6f80 	tst.w	r3, #1024	; 0x400
 8000a68:	e7d8      	b.n	8000a1c <HAL_RCC_ClockConfig+0x94>
      if(RCC_ClkInitStruct->SYSCLKSource == RCC_SYSCLKSOURCE_HSE)
 8000a6a:	2b02      	cmp	r3, #2
 8000a6c:	d10a      	bne.n	8000a84 <HAL_RCC_ClockConfig+0xfc>
        while (__HAL_RCC_GET_SYSCLK_SOURCE() != RCC_CFGR_SWS_HSE)
 8000a6e:	68a3      	ldr	r3, [r4, #8]
 8000a70:	f003 030c 	and.w	r3, r3, #12
 8000a74:	2b08      	cmp	r3, #8
 8000a76:	d094      	beq.n	80009a2 <HAL_RCC_ClockConfig+0x1a>
          if((HAL_GetTick() - tickstart) > CLOCKSWITCH_TIMEOUT_VALUE)
 8000a78:	f7ff fbd0 	bl	800021c <HAL_GetTick>
 8000a7c:	1bc0      	subs	r0, r0, r7
 8000a7e:	4540      	cmp	r0, r8
 8000a80:	d9f5      	bls.n	8000a6e <HAL_RCC_ClockConfig+0xe6>
 8000a82:	e7e3      	b.n	8000a4c <HAL_RCC_ClockConfig+0xc4>
      else if(RCC_ClkInitStruct->SYSCLKSource == RCC_SYSCLKSOURCE_MSI)
 8000a84:	b973      	cbnz	r3, 8000aa4 <HAL_RCC_ClockConfig+0x11c>
        while (__HAL_RCC_GET_SYSCLK_SOURCE() != RCC_CFGR_SWS_MSI)
 8000a86:	68a3      	ldr	r3, [r4, #8]
 8000a88:	f013 0f0c 	tst.w	r3, #12
 8000a8c:	d089      	beq.n	80009a2 <HAL_RCC_ClockConfig+0x1a>
          if((HAL_GetTick() - tickstart) > CLOCKSWITCH_TIMEOUT_VALUE)
 8000a8e:	f7ff fbc5 	bl	800021c <HAL_GetTick>
 8000a92:	1bc0      	subs	r0, r0, r7
 8000a94:	4540      	cmp	r0, r8
 8000a96:	d9f6      	bls.n	8000a86 <HAL_RCC_ClockConfig+0xfe>
 8000a98:	e7d8      	b.n	8000a4c <HAL_RCC_ClockConfig+0xc4>
          if((HAL_GetTick() - tickstart) > CLOCKSWITCH_TIMEOUT_VALUE)
 8000a9a:	f7ff fbbf 	bl	800021c <HAL_GetTick>
 8000a9e:	1bc0      	subs	r0, r0, r7
 8000aa0:	4540      	cmp	r0, r8
 8000aa2:	d8d3      	bhi.n	8000a4c <HAL_RCC_ClockConfig+0xc4>
        while(__HAL_RCC_GET_SYSCLK_SOURCE() != RCC_CFGR_SWS_HSI)
 8000aa4:	68a3      	ldr	r3, [r4, #8]
 8000aa6:	f003 030c 	and.w	r3, r3, #12
 8000aaa:	2b04      	cmp	r3, #4
 8000aac:	d1f5      	bne.n	8000a9a <HAL_RCC_ClockConfig+0x112>
 8000aae:	e778      	b.n	80009a2 <HAL_RCC_ClockConfig+0x1a>
    MODIFY_REG(RCC->CFGR, RCC_CFGR_HPRE, RCC_ClkInitStruct->AHBCLKDivider);
 8000ab0:	4a0d      	ldr	r2, [pc, #52]	; (8000ae8 <HAL_RCC_ClockConfig+0x160>)
 8000ab2:	68a8      	ldr	r0, [r5, #8]
 8000ab4:	6893      	ldr	r3, [r2, #8]
 8000ab6:	f023 03f0 	bic.w	r3, r3, #240	; 0xf0
 8000aba:	4303      	orrs	r3, r0
 8000abc:	6093      	str	r3, [r2, #8]
 8000abe:	e774      	b.n	80009aa <HAL_RCC_ClockConfig+0x22>
    __HAL_FLASH_SET_LATENCY(FLatency);
 8000ac0:	6813      	ldr	r3, [r2, #0]
 8000ac2:	f023 0307 	bic.w	r3, r3, #7
 8000ac6:	4333      	orrs	r3, r6
 8000ac8:	6013      	str	r3, [r2, #0]
    if(READ_BIT(FLASH->ACR, FLASH_ACR_LATENCY) != FLatency)
 8000aca:	6813      	ldr	r3, [r2, #0]
 8000acc:	f003 0307 	and.w	r3, r3, #7
 8000ad0:	429e      	cmp	r6, r3
 8000ad2:	d199      	bne.n	8000a08 <HAL_RCC_ClockConfig+0x80>
 8000ad4:	e770      	b.n	80009b8 <HAL_RCC_ClockConfig+0x30>
    MODIFY_REG(RCC->CFGR, RCC_CFGR_PPRE1, RCC_ClkInitStruct->APB1CLKDivider);
 8000ad6:	68a3      	ldr	r3, [r4, #8]
 8000ad8:	68ea      	ldr	r2, [r5, #12]
 8000ada:	f423 63e0 	bic.w	r3, r3, #1792	; 0x700
 8000ade:	4313      	orrs	r3, r2
 8000ae0:	60a3      	str	r3, [r4, #8]
 8000ae2:	e76e      	b.n	80009c2 <HAL_RCC_ClockConfig+0x3a>
 8000ae4:	40022000 	.word	0x40022000
 8000ae8:	40021000 	.word	0x40021000
 8000aec:	080029a4 	.word	0x080029a4
 8000af0:	20000430 	.word	0x20000430

08000af4 <HAL_RCC_GetHCLKFreq>:
}
 8000af4:	4b01      	ldr	r3, [pc, #4]	; (8000afc <HAL_RCC_GetHCLKFreq+0x8>)
 8000af6:	6818      	ldr	r0, [r3, #0]
 8000af8:	4770      	bx	lr
 8000afa:	bf00      	nop
 8000afc:	20000430 	.word	0x20000430

08000b00 <adc1_enable>:

void adc1_enable(void)
{

/*Enable ADC1 CLK in RCC*/
((RCC)->AHB2ENR) |= RCC_ADC1_ENABLE;
 8000b00:	4b4b      	ldr	r3, [pc, #300]	; (8000c30 <adc1_enable+0x130>)
 8000b02:	6cda      	ldr	r2, [r3, #76]	; 0x4c
 8000b04:	f442 5200 	orr.w	r2, r2, #8192	; 0x2000
 8000b08:	64da      	str	r2, [r3, #76]	; 0x4c

/*Enable the GPIOA CLK in RCC*/
((RCC)->AHB2ENR) |= (RCC_GPIOA_ENABLE|RCC_GPIOB_ENABLE);
 8000b0a:	6cda      	ldr	r2, [r3, #76]	; 0x4c
 8000b0c:	f042 0203 	orr.w	r2, r2, #3
 8000b10:	64da      	str	r2, [r3, #76]	; 0x4c

((GPIOB)->MODER) |= ((AN_MODE) << (GPIO_0_DSHIFT));
 8000b12:	4b48      	ldr	r3, [pc, #288]	; (8000c34 <adc1_enable+0x134>)
 8000b14:	681a      	ldr	r2, [r3, #0]
 8000b16:	f042 0203 	orr.w	r2, r2, #3
 8000b1a:	601a      	str	r2, [r3, #0]
((GPIOB)->MODER) |= ((AN_MODE) << (GPIO_1_DSHIFT));
 8000b1c:	681a      	ldr	r2, [r3, #0]
 8000b1e:	f042 020c 	orr.w	r2, r2, #12
 8000b22:	601a      	str	r2, [r3, #0]

((GPIOA)->MODER) |= ((AN_MODE) << (GPIO_6_DSHIFT));
 8000b24:	f04f 4390 	mov.w	r3, #1207959552	; 0x48000000
 8000b28:	681a      	ldr	r2, [r3, #0]
 8000b2a:	f442 5240 	orr.w	r2, r2, #12288	; 0x3000
 8000b2e:	601a      	str	r2, [r3, #0]
((GPIOA)->MODER) |= ((AN_MODE) << (GPIO_2_DSHIFT));
 8000b30:	681a      	ldr	r2, [r3, #0]
 8000b32:	f042 0230 	orr.w	r2, r2, #48	; 0x30
 8000b36:	601a      	str	r2, [r3, #0]
((GPIOA)->MODER) |= ((AN_MODE) << (GPIO_1_DSHIFT));
 8000b38:	681a      	ldr	r2, [r3, #0]
 8000b3a:	f042 020c 	orr.w	r2, r2, #12
 8000b3e:	601a      	str	r2, [r3, #0]


/*Disable Deep Power Down*/
while(((ADC1)->CR) & DPD)
 8000b40:	4b3d      	ldr	r3, [pc, #244]	; (8000c38 <adc1_enable+0x138>)
 8000b42:	689a      	ldr	r2, [r3, #8]
 8000b44:	0090      	lsls	r0, r2, #2
 8000b46:	d464      	bmi.n	8000c12 <adc1_enable+0x112>

/*Enable the internal Temperature Sensor*/
//((ADC1_COMMON)->CCR) |= (TEMP_CHANNEL_ENABLE);

/*Adjust the CLK*/
((ADC1_COMMON)->CCR) |= ((HCLK_1)<<(ADC_CLK_SHIFT));
 8000b48:	4a3c      	ldr	r2, [pc, #240]	; (8000c3c <adc1_enable+0x13c>)
 8000b4a:	6893      	ldr	r3, [r2, #8]
 8000b4c:	f443 3380 	orr.w	r3, r3, #65536	; 0x10000
 8000b50:	6093      	str	r3, [r2, #8]



/*Enable the VoltageRegulator*/
while((((ADC1)->CR) & ADC_REG_GEN) == 0U)
 8000b52:	4b39      	ldr	r3, [pc, #228]	; (8000c38 <adc1_enable+0x138>)
 8000b54:	689a      	ldr	r2, [r3, #8]
 8000b56:	00d1      	lsls	r1, r2, #3
 8000b58:	d560      	bpl.n	8000c1c <adc1_enable+0x11c>
{((ADC1)->CR) |= ADC_REG_GEN;}
/*Prep for calibration*/

while(((ADC1)->CR) & ((ADC_JSTP)|(ADC_STP)|(ADC_JSTART)|(ADC_START)|(ADC_DIS)|(ADC_EN)))
 8000b5a:	4b37      	ldr	r3, [pc, #220]	; (8000c38 <adc1_enable+0x138>)
 8000b5c:	461a      	mov	r2, r3
 8000b5e:	6899      	ldr	r1, [r3, #8]
 8000b60:	f011 0f3f 	tst.w	r1, #63	; 0x3f
{((ADC1)->CR) |= ((ADC_JSTP)|(ADC_STP));}
 8000b64:	6899      	ldr	r1, [r3, #8]
while(((ADC1)->CR) & ((ADC_JSTP)|(ADC_STP)|(ADC_JSTART)|(ADC_START)|(ADC_DIS)|(ADC_EN)))
 8000b66:	d15e      	bne.n	8000c26 <adc1_enable+0x126>
while(adci < 100U)
{adci++;}
adci=0U;

/*Calibrate*/
((ADC1)->CR) |= ADC_CALIBRATE;
 8000b68:	f041 4100 	orr.w	r1, r1, #2147483648	; 0x80000000
 8000b6c:	6099      	str	r1, [r3, #8]
while(((ADC1)->CR) & ADC_CALIBRATE){;}
 8000b6e:	6893      	ldr	r3, [r2, #8]
 8000b70:	2b00      	cmp	r3, #0
 8000b72:	dbfc      	blt.n	8000b6e <adc1_enable+0x6e>

while(adci < 100U)
{adci++;}
adci=0U;
 8000b74:	4b32      	ldr	r3, [pc, #200]	; (8000c40 <adc1_enable+0x140>)
 8000b76:	2100      	movs	r1, #0
 8000b78:	6019      	str	r1, [r3, #0]
/*Enable the ADC*/
((ADC1)->CR) |= ADC_EN;
 8000b7a:	6893      	ldr	r3, [r2, #8]
 8000b7c:	f043 0301 	orr.w	r3, r3, #1
 8000b80:	6093      	str	r3, [r2, #8]
while((((ADC1)->ISR) & ADC_READY) == 0U){;}
 8000b82:	4b2d      	ldr	r3, [pc, #180]	; (8000c38 <adc1_enable+0x138>)
 8000b84:	681a      	ldr	r2, [r3, #0]
 8000b86:	07d2      	lsls	r2, r2, #31
 8000b88:	d5fc      	bpl.n	8000b84 <adc1_enable+0x84>



/*Clear Flag*/
((ADC1)->ISR) |= (ADC_READY);
 8000b8a:	681a      	ldr	r2, [r3, #0]
 8000b8c:	f042 0201 	orr.w	r2, r2, #1
 8000b90:	601a      	str	r2, [r3, #0]
/*Enable Interrupts*/
((ADC1)->IER) |= ((EOSI)|(EOCI));
 8000b92:	685a      	ldr	r2, [r3, #4]
 8000b94:	f042 020c 	orr.w	r2, r2, #12
 8000b98:	605a      	str	r2, [r3, #4]


/*Set Channels*/
((ADC1)->SQR1) &= 0U;
 8000b9a:	6b1a      	ldr	r2, [r3, #48]	; 0x30
 8000b9c:	2200      	movs	r2, #0
 8000b9e:	631a      	str	r2, [r3, #48]	; 0x30
((ADC1)->SQR1) |= ((CURRENT_SENSE_CHANNEL)<<(SQ1_SHIFT));
 8000ba0:	6b19      	ldr	r1, [r3, #48]	; 0x30
 8000ba2:	f441 7170 	orr.w	r1, r1, #960	; 0x3c0
 8000ba6:	6319      	str	r1, [r3, #48]	; 0x30
((ADC1)->SQR1) |= ((OUTPUT_VOLTAGE_CHANNEL)<<(SQ3_SHIFT));
 8000ba8:	6b19      	ldr	r1, [r3, #48]	; 0x30
 8000baa:	f441 0180 	orr.w	r1, r1, #4194304	; 0x400000
 8000bae:	6319      	str	r1, [r3, #48]	; 0x30
((ADC1)->SQR2) |= ((INPUT_VOLTAGE_CHANNEL));
 8000bb0:	6b59      	ldr	r1, [r3, #52]	; 0x34
 8000bb2:	f041 0107 	orr.w	r1, r1, #7
 8000bb6:	6359      	str	r1, [r3, #52]	; 0x34
((ADC1)->SQR1) |= REG_CONV_CNT;
 8000bb8:	6b19      	ldr	r1, [r3, #48]	; 0x30
 8000bba:	f041 0104 	orr.w	r1, r1, #4
 8000bbe:	6319      	str	r1, [r3, #48]	; 0x30

((ADC1)->JSQR) &= 0U;
 8000bc0:	6cd9      	ldr	r1, [r3, #76]	; 0x4c
 8000bc2:	64da      	str	r2, [r3, #76]	; 0x4c
((ADC1)->JSQR) |= ((INT_TEMP_CHANNEL)<<(JSQ2_SHIFT));
 8000bc4:	6cd9      	ldr	r1, [r3, #76]	; 0x4c
 8000bc6:	f441 31c0 	orr.w	r1, r1, #98304	; 0x18000
 8000bca:	64d9      	str	r1, [r3, #76]	; 0x4c
((ADC1)->JSQR) |= ((EXT_TEMP_CHANNEL)<<(JSQ1_SHIFT));
 8000bcc:	6cd9      	ldr	r1, [r3, #76]	; 0x4c
 8000bce:	f441 6130 	orr.w	r1, r1, #2816	; 0xb00
 8000bd2:	64d9      	str	r1, [r3, #76]	; 0x4c
((ADC1)->JSQR) |= (INJ_CONV_CNT);
 8000bd4:	6cd9      	ldr	r1, [r3, #76]	; 0x4c
 8000bd6:	f041 0101 	orr.w	r1, r1, #1
 8000bda:	64d9      	str	r1, [r3, #76]	; 0x4c



/*Set Sampling Time on all channels*/
((ADC1)->SMPR1) |= ((SMPR1_CONF)<<(1U));
 8000bdc:	6959      	ldr	r1, [r3, #20]
 8000bde:	f041 5192 	orr.w	r1, r1, #306184192	; 0x12400000
 8000be2:	f441 2112 	orr.w	r1, r1, #598016	; 0x92000
 8000be6:	f441 6192 	orr.w	r1, r1, #1168	; 0x490
 8000bea:	f041 0102 	orr.w	r1, r1, #2
 8000bee:	6159      	str	r1, [r3, #20]
((ADC1)->SMPR2) |= ((SMPR2_CONF)<<(1U));
 8000bf0:	6998      	ldr	r0, [r3, #24]
 8000bf2:	4914      	ldr	r1, [pc, #80]	; (8000c44 <adc1_enable+0x144>)
 8000bf4:	4301      	orrs	r1, r0
 8000bf6:	6199      	str	r1, [r3, #24]

/*Configure the Setup*/
((ADC1)->CFGR) |= (AUTO_DELAY);
 8000bf8:	68d9      	ldr	r1, [r3, #12]
 8000bfa:	f441 4180 	orr.w	r1, r1, #16384	; 0x4000
 8000bfe:	60d9      	str	r1, [r3, #12]
  NVIC->ICPR[(((uint32_t)(int32_t)IRQn) >> 5UL)] = (uint32_t)(1UL << (((uint32_t)(int32_t)IRQn) & 0x1FUL));
 8000c00:	4b11      	ldr	r3, [pc, #68]	; (8000c48 <adc1_enable+0x148>)
 8000c02:	f44f 2180 	mov.w	r1, #262144	; 0x40000
 8000c06:	f8c3 1180 	str.w	r1, [r3, #384]	; 0x180
    NVIC->IP[((uint32_t)(int32_t)IRQn)]               = (uint8_t)((priority << (8U - __NVIC_PRIO_BITS)) & (uint32_t)0xFFUL);
 8000c0a:	f883 2312 	strb.w	r2, [r3, #786]	; 0x312
  NVIC->ISER[(((uint32_t)(int32_t)IRQn) >> 5UL)] = (uint32_t)(1UL << (((uint32_t)(int32_t)IRQn) & 0x1FUL));
 8000c0e:	6019      	str	r1, [r3, #0]
 8000c10:	4770      	bx	lr
{((ADC1)->CR) &= ~(DPD);}
 8000c12:	689a      	ldr	r2, [r3, #8]
 8000c14:	f022 5200 	bic.w	r2, r2, #536870912	; 0x20000000
 8000c18:	609a      	str	r2, [r3, #8]
 8000c1a:	e792      	b.n	8000b42 <adc1_enable+0x42>
{((ADC1)->CR) |= ADC_REG_GEN;}
 8000c1c:	689a      	ldr	r2, [r3, #8]
 8000c1e:	f042 5280 	orr.w	r2, r2, #268435456	; 0x10000000
 8000c22:	609a      	str	r2, [r3, #8]
 8000c24:	e796      	b.n	8000b54 <adc1_enable+0x54>
{((ADC1)->CR) |= ((ADC_JSTP)|(ADC_STP));}
 8000c26:	f041 0130 	orr.w	r1, r1, #48	; 0x30
 8000c2a:	6099      	str	r1, [r3, #8]
 8000c2c:	e797      	b.n	8000b5e <adc1_enable+0x5e>
 8000c2e:	bf00      	nop
 8000c30:	40021000 	.word	0x40021000
 8000c34:	48000400 	.word	0x48000400
 8000c38:	50040000 	.word	0x50040000
 8000c3c:	50040300 	.word	0x50040300
 8000c40:	20000454 	.word	0x20000454
 8000c44:	02492492 	.word	0x02492492
 8000c48:	e000e100 	.word	0xe000e100

08000c4c <adc1_regular_conversions>:
}


void adc1_regular_conversions(void)
{
((ADC1)->ISR) |= ((EOSI)|(EOCI));
 8000c4c:	4b06      	ldr	r3, [pc, #24]	; (8000c68 <adc1_regular_conversions+0x1c>)
 8000c4e:	681a      	ldr	r2, [r3, #0]
 8000c50:	f042 020c 	orr.w	r2, r2, #12
 8000c54:	601a      	str	r2, [r3, #0]
((ADC1)->IER) |= ((EOSI)|(EOCI));
 8000c56:	685a      	ldr	r2, [r3, #4]
 8000c58:	f042 020c 	orr.w	r2, r2, #12
 8000c5c:	605a      	str	r2, [r3, #4]
((ADC1)->CR) |= ADC_START;
 8000c5e:	689a      	ldr	r2, [r3, #8]
 8000c60:	f042 0204 	orr.w	r2, r2, #4
 8000c64:	609a      	str	r2, [r3, #8]
 8000c66:	4770      	bx	lr
 8000c68:	50040000 	.word	0x50040000

08000c6c <adc1_inject_conversions>:
}

void adc1_inject_conversions(void)
{

	((ADC1)->ISR) |= ((JEOSI));
 8000c6c:	4b06      	ldr	r3, [pc, #24]	; (8000c88 <adc1_inject_conversions+0x1c>)
 8000c6e:	681a      	ldr	r2, [r3, #0]
 8000c70:	f042 0240 	orr.w	r2, r2, #64	; 0x40
 8000c74:	601a      	str	r2, [r3, #0]
	((ADC1)->IER) |= ((JEOSI));
 8000c76:	685a      	ldr	r2, [r3, #4]
 8000c78:	f042 0240 	orr.w	r2, r2, #64	; 0x40
 8000c7c:	605a      	str	r2, [r3, #4]
	((ADC1)->CR) |= ADC_JSTART;
 8000c7e:	689a      	ldr	r2, [r3, #8]
 8000c80:	f042 0208 	orr.w	r2, r2, #8
 8000c84:	609a      	str	r2, [r3, #8]
 8000c86:	4770      	bx	lr
 8000c88:	50040000 	.word	0x50040000

08000c8c <dac_enable>:
int32_t dac_out;


void dac_enable(void)
{
dac_out = 1000U;
 8000c8c:	4b0f      	ldr	r3, [pc, #60]	; (8000ccc <dac_enable+0x40>)
 8000c8e:	f44f 727a 	mov.w	r2, #1000	; 0x3e8
 8000c92:	601a      	str	r2, [r3, #0]
/*Enable RCC Clock*/
((RCC)->APB1ENR1) |= RCC_DAC_ENABLE;
 8000c94:	4a0e      	ldr	r2, [pc, #56]	; (8000cd0 <dac_enable+0x44>)
 8000c96:	6d93      	ldr	r3, [r2, #88]	; 0x58
 8000c98:	f043 5300 	orr.w	r3, r3, #536870912	; 0x20000000
 8000c9c:	6593      	str	r3, [r2, #88]	; 0x58
/*Set GPIO PA5 to Analog Mode */
((GPIOA)->MODER) |= ((AN_MODE)<<(GPIO_5_DSHIFT));
 8000c9e:	f04f 4290 	mov.w	r2, #1207959552	; 0x48000000
 8000ca2:	6813      	ldr	r3, [r2, #0]
 8000ca4:	f443 6340 	orr.w	r3, r3, #3072	; 0xc00
 8000ca8:	6013      	str	r3, [r2, #0]

/*Connect DAC2 to on chip Peripheral*/
((DAC)->MCR) |= ((MODE_1) <<(CH2_SHIFT));
 8000caa:	4b0a      	ldr	r3, [pc, #40]	; (8000cd4 <dac_enable+0x48>)
 8000cac:	6bda      	ldr	r2, [r3, #60]	; 0x3c
 8000cae:	f442 3280 	orr.w	r2, r2, #65536	; 0x10000
 8000cb2:	63da      	str	r2, [r3, #60]	; 0x3c

/*Enable to the DAC*/
((DAC)->CR) |= CH2_ENABLE;
 8000cb4:	681a      	ldr	r2, [r3, #0]
 8000cb6:	f442 3280 	orr.w	r2, r2, #65536	; 0x10000
 8000cba:	601a      	str	r2, [r3, #0]


((DAC)->DHR12RD) &= 0U;
 8000cbc:	6a1a      	ldr	r2, [r3, #32]
 8000cbe:	2200      	movs	r2, #0
 8000cc0:	621a      	str	r2, [r3, #32]
((DAC)->DHR12RD) |= ((dac_out) << (CH2_SHIFT));
 8000cc2:	6a1a      	ldr	r2, [r3, #32]
 8000cc4:	f042 727a 	orr.w	r2, r2, #65536000	; 0x3e80000
 8000cc8:	621a      	str	r2, [r3, #32]
 8000cca:	4770      	bx	lr
 8000ccc:	20000458 	.word	0x20000458
 8000cd0:	40021000 	.word	0x40021000
 8000cd4:	40007400 	.word	0x40007400

08000cd8 <dac_up>:
}


void dac_up(uint32_t increment)
{
dac_out += increment;
 8000cd8:	4b0a      	ldr	r3, [pc, #40]	; (8000d04 <dac_up+0x2c>)
 8000cda:	681a      	ldr	r2, [r3, #0]
 8000cdc:	4410      	add	r0, r2
if(dac_out > 4095U)
 8000cde:	f5b0 5f80 	cmp.w	r0, #4096	; 0x1000
{dac_out = 4095U;}
 8000ce2:	bf24      	itt	cs
 8000ce4:	f640 72ff 	movwcs	r2, #4095	; 0xfff
 8000ce8:	601a      	strcs	r2, [r3, #0]

((DAC)->DHR12RD) &= 0U;
 8000cea:	4a07      	ldr	r2, [pc, #28]	; (8000d08 <dac_up+0x30>)
dac_out += increment;
 8000cec:	bf38      	it	cc
 8000cee:	6018      	strcc	r0, [r3, #0]
((DAC)->DHR12RD) &= 0U;
 8000cf0:	6a11      	ldr	r1, [r2, #32]
 8000cf2:	2100      	movs	r1, #0
 8000cf4:	6211      	str	r1, [r2, #32]
((DAC)->DHR12RD) |= ((dac_out) << (CH2_SHIFT));
 8000cf6:	6a11      	ldr	r1, [r2, #32]
 8000cf8:	681b      	ldr	r3, [r3, #0]
 8000cfa:	ea41 4303 	orr.w	r3, r1, r3, lsl #16
 8000cfe:	6213      	str	r3, [r2, #32]
 8000d00:	4770      	bx	lr
 8000d02:	bf00      	nop
 8000d04:	20000458 	.word	0x20000458
 8000d08:	40007400 	.word	0x40007400

08000d0c <dac_down>:
}
void dac_down(uint32_t decrement)
{
	 dac_out -= decrement;
 8000d0c:	4b08      	ldr	r3, [pc, #32]	; (8000d30 <dac_down+0x24>)
 8000d0e:	681a      	ldr	r2, [r3, #0]
	 if(dac_out <= 0U)
 8000d10:	1a10      	subs	r0, r2, r0
	 {dac_out = 1U;}
 8000d12:	bf04      	itt	eq
 8000d14:	2201      	moveq	r2, #1
 8000d16:	601a      	streq	r2, [r3, #0]


	((DAC)->DHR12RD) &= 0U;
 8000d18:	4a06      	ldr	r2, [pc, #24]	; (8000d34 <dac_down+0x28>)
	 dac_out -= decrement;
 8000d1a:	bf18      	it	ne
 8000d1c:	6018      	strne	r0, [r3, #0]
	((DAC)->DHR12RD) &= 0U;
 8000d1e:	6a11      	ldr	r1, [r2, #32]
 8000d20:	2100      	movs	r1, #0
 8000d22:	6211      	str	r1, [r2, #32]
	((DAC)->DHR12RD) |= ((dac_out) << (CH2_SHIFT));
 8000d24:	6a11      	ldr	r1, [r2, #32]
 8000d26:	681b      	ldr	r3, [r3, #0]
 8000d28:	ea41 4303 	orr.w	r3, r1, r3, lsl #16
 8000d2c:	6213      	str	r3, [r2, #32]
 8000d2e:	4770      	bx	lr
 8000d30:	20000458 	.word	0x20000458
 8000d34:	40007400 	.word	0x40007400

08000d38 <dac_set>:
{set_point = 0U;}

if(set_point > 4095U)
{set_point = 4095U;}

dac_out = set_point;
 8000d38:	f640 73ff 	movw	r3, #4095	; 0xfff
 8000d3c:	4298      	cmp	r0, r3
 8000d3e:	bf28      	it	cs
 8000d40:	4618      	movcs	r0, r3
 8000d42:	4b05      	ldr	r3, [pc, #20]	; (8000d58 <dac_set+0x20>)
 8000d44:	6018      	str	r0, [r3, #0]

((DAC)->DHR12RD) &= 0U;
 8000d46:	4b05      	ldr	r3, [pc, #20]	; (8000d5c <dac_set+0x24>)
 8000d48:	6a1a      	ldr	r2, [r3, #32]
 8000d4a:	2200      	movs	r2, #0
 8000d4c:	621a      	str	r2, [r3, #32]
((DAC)->DHR12RD) |= ((dac_out) << (CH2_SHIFT));
 8000d4e:	6a1a      	ldr	r2, [r3, #32]
 8000d50:	ea42 4000 	orr.w	r0, r2, r0, lsl #16
 8000d54:	6218      	str	r0, [r3, #32]
 8000d56:	4770      	bx	lr
 8000d58:	20000458 	.word	0x20000458
 8000d5c:	40007400 	.word	0x40007400

08000d60 <lptim1_enable>:
void lptim1_enable(void)
{
uint8_t i =0U;


((RCC)->APB1ENR1) |= RCC_LPTIM1_ENABLE;
 8000d60:	4a12      	ldr	r2, [pc, #72]	; (8000dac <lptim1_enable+0x4c>)
 8000d62:	6d93      	ldr	r3, [r2, #88]	; 0x58
 8000d64:	f043 4300 	orr.w	r3, r3, #2147483648	; 0x80000000
 8000d68:	6593      	str	r3, [r2, #88]	; 0x58
((LPTIM1)->CR) |= LPTIM1_ENABLE;
 8000d6a:	4b11      	ldr	r3, [pc, #68]	; (8000db0 <lptim1_enable+0x50>)
 8000d6c:	691a      	ldr	r2, [r3, #16]
 8000d6e:	f042 0201 	orr.w	r2, r2, #1
 8000d72:	611a      	str	r2, [r3, #16]


((LPTIM1)->IER) |= ARRM;
 8000d74:	689a      	ldr	r2, [r3, #8]
 8000d76:	f042 0202 	orr.w	r2, r2, #2
 8000d7a:	609a      	str	r2, [r3, #8]

((LPTIM1)->ARR) = QTR_MEG_OFF;
 8000d7c:	f44f 72a0 	mov.w	r2, #320	; 0x140
 8000d80:	619a      	str	r2, [r3, #24]
  NVIC->ICPR[(((uint32_t)(int32_t)IRQn) >> 5UL)] = (uint32_t)(1UL << (((uint32_t)(int32_t)IRQn) & 0x1FUL));
 8000d82:	4a0c      	ldr	r2, [pc, #48]	; (8000db4 <lptim1_enable+0x54>)
 8000d84:	2102      	movs	r1, #2
    NVIC->IP[((uint32_t)(int32_t)IRQn)]               = (uint8_t)((priority << (8U - __NVIC_PRIO_BITS)) & (uint32_t)0xFFUL);
 8000d86:	2020      	movs	r0, #32
  NVIC->ICPR[(((uint32_t)(int32_t)IRQn) >> 5UL)] = (uint32_t)(1UL << (((uint32_t)(int32_t)IRQn) & 0x1FUL));
 8000d88:	f8c2 1188 	str.w	r1, [r2, #392]	; 0x188
    NVIC->IP[((uint32_t)(int32_t)IRQn)]               = (uint8_t)((priority << (8U - __NVIC_PRIO_BITS)) & (uint32_t)0xFFUL);
 8000d8c:	f882 0341 	strb.w	r0, [r2, #833]	; 0x341
  NVIC->ISER[(((uint32_t)(int32_t)IRQn) >> 5UL)] = (uint32_t)(1UL << (((uint32_t)(int32_t)IRQn) & 0x1FUL));
 8000d90:	6091      	str	r1, [r2, #8]
NVIC_ClearPendingIRQ(LPTIM1_IRQn);
NVIC_SetPriority(LPTIM1_IRQn, 2U);
NVIC_EnableIRQ(LPTIM1_IRQn);

for(i=0U; i<5U; i++)
{((&sys_time)->time_nums)[i] = 0U;}
 8000d92:	4a09      	ldr	r2, [pc, #36]	; (8000db8 <lptim1_enable+0x58>)
 8000d94:	2100      	movs	r1, #0
 8000d96:	6011      	str	r1, [r2, #0]
 8000d98:	6051      	str	r1, [r2, #4]
 8000d9a:	6091      	str	r1, [r2, #8]
 8000d9c:	60d1      	str	r1, [r2, #12]
 8000d9e:	6111      	str	r1, [r2, #16]


((LPTIM1)->CR) |= CNT_START;
 8000da0:	691a      	ldr	r2, [r3, #16]
 8000da2:	f042 0204 	orr.w	r2, r2, #4
 8000da6:	611a      	str	r2, [r3, #16]
 8000da8:	4770      	bx	lr
 8000daa:	bf00      	nop
 8000dac:	40021000 	.word	0x40021000
 8000db0:	40007c00 	.word	0x40007c00
 8000db4:	e000e100 	.word	0xe000e100
 8000db8:	2000045c 	.word	0x2000045c

08000dbc <time_increment>:
}

void time_increment(void)
{
(((&sys_time)->time_nums)[ticks])++;
 8000dbc:	4b16      	ldr	r3, [pc, #88]	; (8000e18 <time_increment+0x5c>)
 8000dbe:	681a      	ldr	r2, [r3, #0]
 8000dc0:	3201      	adds	r2, #1

if((((&sys_time)->time_nums)[ticks]) >= ticks_ovf)
 8000dc2:	2af9      	cmp	r2, #249	; 0xf9
(((&sys_time)->time_nums)[ticks])++;
 8000dc4:	601a      	str	r2, [r3, #0]
if((((&sys_time)->time_nums)[ticks]) >= ticks_ovf)
 8000dc6:	d904      	bls.n	8000dd2 <time_increment+0x16>
{
(((&sys_time)->time_nums)[millis])++;
 8000dc8:	685a      	ldr	r2, [r3, #4]
 8000dca:	3201      	adds	r2, #1
 8000dcc:	605a      	str	r2, [r3, #4]
(((&sys_time)->time_nums)[ticks]) = 0U;
 8000dce:	2200      	movs	r2, #0
 8000dd0:	601a      	str	r2, [r3, #0]
}

if((((&sys_time)->time_nums)[millis]) >= millis_ovf)
 8000dd2:	685a      	ldr	r2, [r3, #4]
 8000dd4:	f5b2 7f7a 	cmp.w	r2, #1000	; 0x3e8
 8000dd8:	d304      	bcc.n	8000de4 <time_increment+0x28>
{
(((&sys_time)->time_nums)[seconds])++;
 8000dda:	689a      	ldr	r2, [r3, #8]
 8000ddc:	3201      	adds	r2, #1
 8000dde:	609a      	str	r2, [r3, #8]
(((&sys_time)->time_nums)[millis]) = 0U;
 8000de0:	2200      	movs	r2, #0
 8000de2:	605a      	str	r2, [r3, #4]
}

if((((&sys_time)->time_nums)[seconds]) >= seconds_ovf)
 8000de4:	689a      	ldr	r2, [r3, #8]
 8000de6:	2a3b      	cmp	r2, #59	; 0x3b
 8000de8:	d904      	bls.n	8000df4 <time_increment+0x38>
{
(((&sys_time)->time_nums)[minutes])++;
 8000dea:	68da      	ldr	r2, [r3, #12]
 8000dec:	3201      	adds	r2, #1
 8000dee:	60da      	str	r2, [r3, #12]
(((&sys_time)->time_nums)[seconds]) = 0U;
 8000df0:	2200      	movs	r2, #0
 8000df2:	609a      	str	r2, [r3, #8]
}

if((((&sys_time)->time_nums)[minutes]) >= minutes_ovf)
 8000df4:	68da      	ldr	r2, [r3, #12]
 8000df6:	2a3b      	cmp	r2, #59	; 0x3b
 8000df8:	d904      	bls.n	8000e04 <time_increment+0x48>
{
(((&sys_time)->time_nums)[hours])++;
 8000dfa:	691a      	ldr	r2, [r3, #16]
 8000dfc:	3201      	adds	r2, #1
 8000dfe:	611a      	str	r2, [r3, #16]
(((&sys_time)->time_nums)[minutes]) = 0U;
 8000e00:	2200      	movs	r2, #0
 8000e02:	60da      	str	r2, [r3, #12]
}

if((((&sys_time)->time_nums)[hours]) >= hours_ovf)
 8000e04:	691a      	ldr	r2, [r3, #16]
 8000e06:	2a17      	cmp	r2, #23
 8000e08:	d904      	bls.n	8000e14 <time_increment+0x58>
{
(((&sys_time)->time_nums)[days])++;
 8000e0a:	695a      	ldr	r2, [r3, #20]
 8000e0c:	3201      	adds	r2, #1
 8000e0e:	615a      	str	r2, [r3, #20]
(((&sys_time)->time_nums)[hours]) = 0U;
 8000e10:	2200      	movs	r2, #0
 8000e12:	611a      	str	r2, [r3, #16]
 8000e14:	4770      	bx	lr
 8000e16:	bf00      	nop
 8000e18:	2000045c 	.word	0x2000045c

08000e1c <read_time>:


}

TIME* read_time(void)
{return &sys_time;}
 8000e1c:	4800      	ldr	r0, [pc, #0]	; (8000e20 <read_time+0x4>)
 8000e1e:	4770      	bx	lr
 8000e20:	2000045c 	.word	0x2000045c

08000e24 <SystemClock_Config>:
/**
  * @brief System Clock Configuration
  * @retval None
  */
void SystemClock_Config(void)
{
 8000e24:	b510      	push	{r4, lr}
 8000e26:	b096      	sub	sp, #88	; 0x58
  RCC_ClkInitTypeDef RCC_ClkInitStruct;

    /**Initializes the CPU, AHB and APB busses clocks 
    */
  RCC_OscInitStruct.OscillatorType = RCC_OSCILLATORTYPE_MSI;
  RCC_OscInitStruct.MSIState = RCC_MSI_ON;
 8000e28:	2201      	movs	r2, #1
  RCC_OscInitStruct.OscillatorType = RCC_OSCILLATORTYPE_MSI;
 8000e2a:	2310      	movs	r3, #16
 8000e2c:	9305      	str	r3, [sp, #20]
  RCC_OscInitStruct.MSIState = RCC_MSI_ON;
 8000e2e:	920b      	str	r2, [sp, #44]	; 0x2c
  RCC_OscInitStruct.MSICalibrationValue = 0;
 8000e30:	2300      	movs	r3, #0
  RCC_OscInitStruct.MSIClockRange = RCC_MSIRANGE_8;
  RCC_OscInitStruct.PLL.PLLState = RCC_PLL_ON;
  RCC_OscInitStruct.PLL.PLLSource = RCC_PLLSOURCE_MSI;
 8000e32:	9210      	str	r2, [sp, #64]	; 0x40
  RCC_OscInitStruct.PLL.PLLN = 79U;
 8000e34:	224f      	movs	r2, #79	; 0x4f
  RCC_OscInitStruct.MSICalibrationValue = 0;
 8000e36:	930c      	str	r3, [sp, #48]	; 0x30
  RCC_OscInitStruct.PLL.PLLN = 79U;
 8000e38:	9212      	str	r2, [sp, #72]	; 0x48
  RCC_OscInitStruct.MSIClockRange = RCC_MSIRANGE_8;
 8000e3a:	2380      	movs	r3, #128	; 0x80
  RCC_OscInitStruct.PLL.PLLM = ((2U)<<(4U));
 8000e3c:	2220      	movs	r2, #32
  RCC_OscInitStruct.MSIClockRange = RCC_MSIRANGE_8;
 8000e3e:	930d      	str	r3, [sp, #52]	; 0x34
  RCC_OscInitStruct.PLL.PLLM = ((2U)<<(4U));
 8000e40:	9211      	str	r2, [sp, #68]	; 0x44
  RCC_OscInitStruct.PLL.PLLState = RCC_PLL_ON;
 8000e42:	2302      	movs	r3, #2
  RCC_OscInitStruct.PLL.PLLP = RCC_PLLP_DIV7;
 8000e44:	2207      	movs	r2, #7
  RCC_OscInitStruct.PLL.PLLQ = RCC_PLLQ_DIV2;
  RCC_OscInitStruct.PLL.PLLR = RCC_PLLR_DIV2;
  if (HAL_RCC_OscConfig(&RCC_OscInitStruct) != HAL_OK)
 8000e46:	a805      	add	r0, sp, #20
  RCC_OscInitStruct.PLL.PLLState = RCC_PLL_ON;
 8000e48:	930f      	str	r3, [sp, #60]	; 0x3c
  RCC_OscInitStruct.PLL.PLLP = RCC_PLLP_DIV7;
 8000e4a:	9213      	str	r2, [sp, #76]	; 0x4c
  RCC_OscInitStruct.PLL.PLLQ = RCC_PLLQ_DIV2;
 8000e4c:	9314      	str	r3, [sp, #80]	; 0x50
  RCC_OscInitStruct.PLL.PLLR = RCC_PLLR_DIV2;
 8000e4e:	9315      	str	r3, [sp, #84]	; 0x54
  if (HAL_RCC_OscConfig(&RCC_OscInitStruct) != HAL_OK)
 8000e50:	f7ff fb3e 	bl	80004d0 <HAL_RCC_OscConfig>
 8000e54:	b100      	cbz	r0, 8000e58 <SystemClock_Config+0x34>
 8000e56:	e7fe      	b.n	8000e56 <SystemClock_Config+0x32>

    /**Initializes the CPU, AHB and APB busses clocks 
    */
  RCC_ClkInitStruct.ClockType = RCC_CLOCKTYPE_HCLK|RCC_CLOCKTYPE_SYSCLK
                              |RCC_CLOCKTYPE_PCLK1|RCC_CLOCKTYPE_PCLK2;
  RCC_ClkInitStruct.SYSCLKSource = RCC_SYSCLKSOURCE_PLLCLK;
 8000e58:	220f      	movs	r2, #15
 8000e5a:	2303      	movs	r3, #3
  RCC_ClkInitStruct.AHBCLKDivider = RCC_SYSCLK_DIV1;
 8000e5c:	9002      	str	r0, [sp, #8]
  RCC_ClkInitStruct.APB1CLKDivider = RCC_HCLK_DIV1;
 8000e5e:	9003      	str	r0, [sp, #12]
  RCC_ClkInitStruct.APB2CLKDivider = RCC_HCLK_DIV1;
 8000e60:	9004      	str	r0, [sp, #16]

  if (HAL_RCC_ClockConfig(&RCC_ClkInitStruct, FLASH_LATENCY_4) != HAL_OK)
 8000e62:	2104      	movs	r1, #4
 8000e64:	4668      	mov	r0, sp
  RCC_ClkInitStruct.SYSCLKSource = RCC_SYSCLKSOURCE_PLLCLK;
 8000e66:	e88d 000c 	stmia.w	sp, {r2, r3}
  if (HAL_RCC_ClockConfig(&RCC_ClkInitStruct, FLASH_LATENCY_4) != HAL_OK)
 8000e6a:	f7ff fd8d 	bl	8000988 <HAL_RCC_ClockConfig>
 8000e6e:	b100      	cbz	r0, 8000e72 <SystemClock_Config+0x4e>
 8000e70:	e7fe      	b.n	8000e70 <SystemClock_Config+0x4c>
    _Error_Handler(__FILE__, __LINE__);
  }

    /**Configure the main internal regulator output voltage 
    */
  if (HAL_PWREx_ControlVoltageScaling(PWR_REGULATOR_VOLTAGE_SCALE1) != HAL_OK)
 8000e72:	f44f 7000 	mov.w	r0, #512	; 0x200
 8000e76:	f7ff fa4d 	bl	8000314 <HAL_PWREx_ControlVoltageScaling>
 8000e7a:	4604      	mov	r4, r0
 8000e7c:	b100      	cbz	r0, 8000e80 <SystemClock_Config+0x5c>
 8000e7e:	e7fe      	b.n	8000e7e <SystemClock_Config+0x5a>
    _Error_Handler(__FILE__, __LINE__);
  }

    /**Configure the Systick interrupt time 
    */
  HAL_SYSTICK_Config(HAL_RCC_GetHCLKFreq()/1000);
 8000e80:	f7ff fe38 	bl	8000af4 <HAL_RCC_GetHCLKFreq>
 8000e84:	f44f 737a 	mov.w	r3, #1000	; 0x3e8
 8000e88:	fbb0 f0f3 	udiv	r0, r0, r3
 8000e8c:	f7ff fa12 	bl	80002b4 <HAL_SYSTICK_Config>

    /**Configure the Systick 
    */
  HAL_SYSTICK_CLKSourceConfig(SYSTICK_CLKSOURCE_HCLK);
 8000e90:	2004      	movs	r0, #4
 8000e92:	f7ff fa25 	bl	80002e0 <HAL_SYSTICK_CLKSourceConfig>

  /* SysTick_IRQn interrupt configuration */
  HAL_NVIC_SetPriority(SysTick_IRQn, 0, 0);
 8000e96:	4622      	mov	r2, r4
 8000e98:	4621      	mov	r1, r4
 8000e9a:	f04f 30ff 	mov.w	r0, #4294967295
 8000e9e:	f7ff f9d5 	bl	800024c <HAL_NVIC_SetPriority>
}
 8000ea2:	b016      	add	sp, #88	; 0x58
 8000ea4:	bd10      	pop	{r4, pc}
	...

08000ea8 <main>:
{
 8000ea8:	b508      	push	{r3, lr}
  HAL_Init();
 8000eaa:	f7ff f9a3 	bl	80001f4 <HAL_Init>
  SystemClock_Config();
 8000eae:	f7ff ffb9 	bl	8000e24 <SystemClock_Config>
  system_io_config();
 8000eb2:	f000 fc81 	bl	80017b8 <system_io_config>
  lptim1_enable();
 8000eb6:	f7ff ff53 	bl	8000d60 <lptim1_enable>
  tim1_enable(115U);
 8000eba:	2073      	movs	r0, #115	; 0x73
 8000ebc:	f001 fbac 	bl	8002618 <tim1_enable>
  uart1_enable();
 8000ec0:	f001 fc54 	bl	800276c <uart1_enable>
  adc1_enable();
 8000ec4:	f7ff fe1c 	bl	8000b00 <adc1_enable>
  system_ptr_config();
 8000ec8:	f000 f8d6 	bl	8001078 <system_ptr_config>
  dac_enable();
 8000ecc:	f7ff fede 	bl	8000c8c <dac_enable>
  relay_control(off);
 8000ed0:	2000      	movs	r0, #0
 8000ed2:	f000 fc65 	bl	80017a0 <relay_control>
	   flag_checker = start_up_check();
 8000ed6:	4c0a      	ldr	r4, [pc, #40]	; (8000f00 <main+0x58>)
 8000ed8:	f000 f97a 	bl	80011d0 <start_up_check>
 8000edc:	6020      	str	r0, [r4, #0]
	    if(flag_checker)
 8000ede:	b130      	cbz	r0, 8000eee <main+0x46>
	    	system_management();
 8000ee0:	f001 fb06 	bl	80024f0 <system_management>
	    	adc_management();
 8000ee4:	f000 fdb0 	bl	8001a48 <adc_management>
	    	start_up_procedure();
 8000ee8:	f000 f97a 	bl	80011e0 <start_up_procedure>
 8000eec:	e7f4      	b.n	8000ed8 <main+0x30>
	    	system_management();
 8000eee:	f001 faff 	bl	80024f0 <system_management>
	    	adc_management();
 8000ef2:	f000 fda9 	bl	8001a48 <adc_management>
	    	pmic_management();
 8000ef6:	f000 fc73 	bl	80017e0 <pmic_management>
	    	thermal_management();
 8000efa:	f000 fbbd 	bl	8001678 <thermal_management>
 8000efe:	e7eb      	b.n	8000ed8 <main+0x30>
 8000f00:	20000474 	.word	0x20000474

08000f04 <HAL_MspInit>:
{
  /* USER CODE BEGIN MspInit 0 */

  /* USER CODE END MspInit 0 */

  __HAL_RCC_SYSCFG_CLK_ENABLE();
 8000f04:	4b21      	ldr	r3, [pc, #132]	; (8000f8c <HAL_MspInit+0x88>)
{
 8000f06:	b507      	push	{r0, r1, r2, lr}
  __HAL_RCC_SYSCFG_CLK_ENABLE();
 8000f08:	6e1a      	ldr	r2, [r3, #96]	; 0x60
 8000f0a:	f042 0201 	orr.w	r2, r2, #1
 8000f0e:	661a      	str	r2, [r3, #96]	; 0x60
 8000f10:	6e1a      	ldr	r2, [r3, #96]	; 0x60
 8000f12:	f002 0201 	and.w	r2, r2, #1
 8000f16:	9200      	str	r2, [sp, #0]
 8000f18:	9a00      	ldr	r2, [sp, #0]
  __HAL_RCC_PWR_CLK_ENABLE();
 8000f1a:	6d9a      	ldr	r2, [r3, #88]	; 0x58
 8000f1c:	f042 5280 	orr.w	r2, r2, #268435456	; 0x10000000
 8000f20:	659a      	str	r2, [r3, #88]	; 0x58
 8000f22:	6d9b      	ldr	r3, [r3, #88]	; 0x58
 8000f24:	f003 5380 	and.w	r3, r3, #268435456	; 0x10000000
 8000f28:	9301      	str	r3, [sp, #4]

  HAL_NVIC_SetPriorityGrouping(NVIC_PRIORITYGROUP_4);
 8000f2a:	2003      	movs	r0, #3
  __HAL_RCC_PWR_CLK_ENABLE();
 8000f2c:	9b01      	ldr	r3, [sp, #4]
  HAL_NVIC_SetPriorityGrouping(NVIC_PRIORITYGROUP_4);
 8000f2e:	f7ff f97b 	bl	8000228 <HAL_NVIC_SetPriorityGrouping>

  /* System interrupt init*/
  /* MemoryManagement_IRQn interrupt configuration */
  HAL_NVIC_SetPriority(MemoryManagement_IRQn, 0, 0);
 8000f32:	2200      	movs	r2, #0
 8000f34:	4611      	mov	r1, r2
 8000f36:	f06f 000b 	mvn.w	r0, #11
 8000f3a:	f7ff f987 	bl	800024c <HAL_NVIC_SetPriority>
  /* BusFault_IRQn interrupt configuration */
  HAL_NVIC_SetPriority(BusFault_IRQn, 0, 0);
 8000f3e:	2200      	movs	r2, #0
 8000f40:	4611      	mov	r1, r2
 8000f42:	f06f 000a 	mvn.w	r0, #10
 8000f46:	f7ff f981 	bl	800024c <HAL_NVIC_SetPriority>
  /* UsageFault_IRQn interrupt configuration */
  HAL_NVIC_SetPriority(UsageFault_IRQn, 0, 0);
 8000f4a:	2200      	movs	r2, #0
 8000f4c:	4611      	mov	r1, r2
 8000f4e:	f06f 0009 	mvn.w	r0, #9
 8000f52:	f7ff f97b 	bl	800024c <HAL_NVIC_SetPriority>
  /* SVCall_IRQn interrupt configuration */
  HAL_NVIC_SetPriority(SVCall_IRQn, 0, 0);
 8000f56:	2200      	movs	r2, #0
 8000f58:	4611      	mov	r1, r2
 8000f5a:	f06f 0004 	mvn.w	r0, #4
 8000f5e:	f7ff f975 	bl	800024c <HAL_NVIC_SetPriority>
  /* DebugMonitor_IRQn interrupt configuration */
  HAL_NVIC_SetPriority(DebugMonitor_IRQn, 0, 0);
 8000f62:	2200      	movs	r2, #0
 8000f64:	4611      	mov	r1, r2
 8000f66:	f06f 0003 	mvn.w	r0, #3
 8000f6a:	f7ff f96f 	bl	800024c <HAL_NVIC_SetPriority>
  /* PendSV_IRQn interrupt configuration */
  HAL_NVIC_SetPriority(PendSV_IRQn, 0, 0);
 8000f6e:	2200      	movs	r2, #0
 8000f70:	4611      	mov	r1, r2
 8000f72:	f06f 0001 	mvn.w	r0, #1
 8000f76:	f7ff f969 	bl	800024c <HAL_NVIC_SetPriority>
  /* SysTick_IRQn interrupt configuration */
  HAL_NVIC_SetPriority(SysTick_IRQn, 0, 0);
 8000f7a:	2200      	movs	r2, #0
 8000f7c:	4611      	mov	r1, r2
 8000f7e:	f04f 30ff 	mov.w	r0, #4294967295
 8000f82:	f7ff f963 	bl	800024c <HAL_NVIC_SetPriority>

  /* USER CODE BEGIN MspInit 1 */

  /* USER CODE END MspInit 1 */
}
 8000f86:	b003      	add	sp, #12
 8000f88:	f85d fb04 	ldr.w	pc, [sp], #4
 8000f8c:	40021000 	.word	0x40021000

08000f90 <USART1_IRQHandler>:

/* USER CODE BEGIN 0 */
uint32_t fc;
uint16_t data;
void USART1_IRQHandler(void)
{
 8000f90:	b510      	push	{r4, lr}
	fc = ((USART1)->ISR);
 8000f92:	4c06      	ldr	r4, [pc, #24]	; (8000fac <USART1_IRQHandler+0x1c>)
 8000f94:	4a06      	ldr	r2, [pc, #24]	; (8000fb0 <USART1_IRQHandler+0x20>)
 8000f96:	69e3      	ldr	r3, [r4, #28]
 8000f98:	6013      	str	r3, [r2, #0]

	if(fc & RXNE)
 8000f9a:	069b      	lsls	r3, r3, #26
 8000f9c:	d501      	bpl.n	8000fa2 <USART1_IRQHandler+0x12>
	{uart1_buffer_char();}
 8000f9e:	f001 fc57 	bl	8002850 <uart1_buffer_char>
	((USART1)->ICR) |= ONES;
 8000fa2:	6a23      	ldr	r3, [r4, #32]
 8000fa4:	f04f 33ff 	mov.w	r3, #4294967295
 8000fa8:	6223      	str	r3, [r4, #32]
 8000faa:	bd10      	pop	{r4, pc}
 8000fac:	40013800 	.word	0x40013800
 8000fb0:	2000047c 	.word	0x2000047c

08000fb4 <LPTIM1_IRQHandler>:
}

void LPTIM1_IRQHandler(void)
{
 8000fb4:	b508      	push	{r3, lr}
time_increment();
 8000fb6:	f7ff ff01 	bl	8000dbc <time_increment>
((LPTIM1)->ICR) |= LPTIM1_FLAG_CLEAR;
 8000fba:	4a04      	ldr	r2, [pc, #16]	; (8000fcc <LPTIM1_IRQHandler+0x18>)
 8000fbc:	6853      	ldr	r3, [r2, #4]
 8000fbe:	ea6f 2353 	mvn.w	r3, r3, lsr #9
 8000fc2:	ea6f 2343 	mvn.w	r3, r3, lsl #9
 8000fc6:	6053      	str	r3, [r2, #4]
 8000fc8:	bd08      	pop	{r3, pc}
 8000fca:	bf00      	nop
 8000fcc:	40007c00 	.word	0x40007c00

08000fd0 <ADC1_IRQHandler>:
}


void ADC1_IRQHandler(void)
{
 8000fd0:	b538      	push	{r3, r4, r5, lr}
fc = ((ADC1)->ISR);
 8000fd2:	4d1e      	ldr	r5, [pc, #120]	; (800104c <ADC1_IRQHandler+0x7c>)
 8000fd4:	4c1e      	ldr	r4, [pc, #120]	; (8001050 <ADC1_IRQHandler+0x80>)
 8000fd6:	682b      	ldr	r3, [r5, #0]
 8000fd8:	6023      	str	r3, [r4, #0]

if(fc & EOCI)
 8000fda:	0759      	lsls	r1, r3, #29
 8000fdc:	d50a      	bpl.n	8000ff4 <ADC1_IRQHandler+0x24>
{
data = ((ADC1)->DR);
 8000fde:	6c28      	ldr	r0, [r5, #64]	; 0x40
 8000fe0:	4b1c      	ldr	r3, [pc, #112]	; (8001054 <ADC1_IRQHandler+0x84>)
add_sample(data,0U);
 8000fe2:	2100      	movs	r1, #0
data = ((ADC1)->DR);
 8000fe4:	8018      	strh	r0, [r3, #0]
add_sample(data,0U);
 8000fe6:	b280      	uxth	r0, r0
 8000fe8:	f000 fdc2 	bl	8001b70 <add_sample>
((ADC1)->ISR) |= EOCI;
 8000fec:	682b      	ldr	r3, [r5, #0]
 8000fee:	f043 0304 	orr.w	r3, r3, #4
 8000ff2:	602b      	str	r3, [r5, #0]
}

if(fc & EOSI)
 8000ff4:	6823      	ldr	r3, [r4, #0]
 8000ff6:	071a      	lsls	r2, r3, #28
 8000ff8:	d506      	bpl.n	8001008 <ADC1_IRQHandler+0x38>
{
((ADC1)->ISR) |= EOSI;
 8000ffa:	4a14      	ldr	r2, [pc, #80]	; (800104c <ADC1_IRQHandler+0x7c>)
 8000ffc:	6813      	ldr	r3, [r2, #0]
 8000ffe:	f043 0308 	orr.w	r3, r3, #8
 8001002:	6013      	str	r3, [r2, #0]
raise_avg_flag();
 8001004:	f000 fd98 	bl	8001b38 <raise_avg_flag>
}

if(fc & JEOSI)
 8001008:	6823      	ldr	r3, [r4, #0]
 800100a:	065b      	lsls	r3, r3, #25
 800100c:	d515      	bpl.n	800103a <ADC1_IRQHandler+0x6a>
{
data = ((ADC1)->JDR1);
 800100e:	4c0f      	ldr	r4, [pc, #60]	; (800104c <ADC1_IRQHandler+0x7c>)
 8001010:	4d10      	ldr	r5, [pc, #64]	; (8001054 <ADC1_IRQHandler+0x84>)
 8001012:	f8d4 0080 	ldr.w	r0, [r4, #128]	; 0x80
 8001016:	8028      	strh	r0, [r5, #0]
add_sample(data,1U);
 8001018:	2101      	movs	r1, #1
 800101a:	b280      	uxth	r0, r0
 800101c:	f000 fda8 	bl	8001b70 <add_sample>
data = ((ADC1)->JDR2);
 8001020:	f8d4 0084 	ldr.w	r0, [r4, #132]	; 0x84
 8001024:	8028      	strh	r0, [r5, #0]
add_sample(data,1U);
 8001026:	2101      	movs	r1, #1
 8001028:	b280      	uxth	r0, r0
 800102a:	f000 fda1 	bl	8001b70 <add_sample>
raise_temp_flag();
 800102e:	f000 fd91 	bl	8001b54 <raise_temp_flag>
((ADC1)->ISR) |= JEOSI;
 8001032:	6823      	ldr	r3, [r4, #0]
 8001034:	f043 0340 	orr.w	r3, r3, #64	; 0x40
 8001038:	6023      	str	r3, [r4, #0]
}

((ADC1)->ISR) |= ADC1_FLAG_CLEAR;
 800103a:	4a04      	ldr	r2, [pc, #16]	; (800104c <ADC1_IRQHandler+0x7c>)
 800103c:	6813      	ldr	r3, [r2, #0]
 800103e:	ea6f 23d3 	mvn.w	r3, r3, lsr #11
 8001042:	ea6f 23c3 	mvn.w	r3, r3, lsl #11
 8001046:	6013      	str	r3, [r2, #0]
 8001048:	bd38      	pop	{r3, r4, r5, pc}
 800104a:	bf00      	nop
 800104c:	50040000 	.word	0x50040000
 8001050:	2000047c 	.word	0x2000047c
 8001054:	20000478 	.word	0x20000478

08001058 <NMI_Handler>:
 8001058:	4770      	bx	lr

0800105a <HardFault_Handler>:

/**
* @brief This function handles Hard fault interrupt.
*/
void HardFault_Handler(void)
{
 800105a:	e7fe      	b.n	800105a <HardFault_Handler>

0800105c <MemManage_Handler>:

/**
* @brief This function handles Memory management fault.
*/
void MemManage_Handler(void)
{
 800105c:	e7fe      	b.n	800105c <MemManage_Handler>

0800105e <BusFault_Handler>:

/**
* @brief This function handles Prefetch fault, memory access fault.
*/
void BusFault_Handler(void)
{
 800105e:	e7fe      	b.n	800105e <BusFault_Handler>

08001060 <UsageFault_Handler>:

/**
* @brief This function handles Undefined instruction or illegal state.
*/
void UsageFault_Handler(void)
{
 8001060:	e7fe      	b.n	8001060 <UsageFault_Handler>

08001062 <SVC_Handler>:
 8001062:	4770      	bx	lr

08001064 <DebugMon_Handler>:
 8001064:	4770      	bx	lr

08001066 <PendSV_Handler>:

/**
* @brief This function handles Pendable request for system service.
*/
void PendSV_Handler(void)
{
 8001066:	4770      	bx	lr

08001068 <SysTick_Handler>:

/**
* @brief This function handles System tick timer.
*/
void SysTick_Handler(void)
{
 8001068:	b508      	push	{r3, lr}
  /* USER CODE BEGIN SysTick_IRQn 0 */

  /* USER CODE END SysTick_IRQn 0 */
  HAL_IncTick();
 800106a:	f7ff f8cf 	bl	800020c <HAL_IncTick>
  HAL_SYSTICK_IRQHandler();
  /* USER CODE BEGIN SysTick_IRQn 1 */

  /* USER CODE END SysTick_IRQn 1 */
}
 800106e:	e8bd 4008 	ldmia.w	sp!, {r3, lr}
  HAL_SYSTICK_IRQHandler();
 8001072:	f7ff b942 	b.w	80002fa <HAL_SYSTICK_IRQHandler>
	...

08001078 <system_ptr_config>:

}

void system_ptr_config(void)
{
	dbg1=0U;
 8001078:	4a36      	ldr	r2, [pc, #216]	; (8001154 <system_ptr_config+0xdc>)
 800107a:	4837      	ldr	r0, [pc, #220]	; (8001158 <system_ptr_config+0xe0>)
 800107c:	4937      	ldr	r1, [pc, #220]	; (800115c <system_ptr_config+0xe4>)
{
 800107e:	b5f8      	push	{r3, r4, r5, r6, r7, lr}
	dbg1=0U;
 8001080:	2300      	movs	r3, #0
 8001082:	6013      	str	r3, [r2, #0]
	dbg2=0U;
 8001084:	4a36      	ldr	r2, [pc, #216]	; (8001160 <system_ptr_config+0xe8>)
 8001086:	4d37      	ldr	r5, [pc, #220]	; (8001164 <system_ptr_config+0xec>)
 8001088:	6013      	str	r3, [r2, #0]

	for(sysi = 0U; sysi < 100U; sysi++)
 800108a:	4a37      	ldr	r2, [pc, #220]	; (8001168 <system_ptr_config+0xf0>)
 800108c:	461f      	mov	r7, r3
 800108e:	7013      	strb	r3, [r2, #0]
 8001090:	461c      	mov	r4, r3
 8001092:	b2de      	uxtb	r6, r3
 8001094:	2e64      	cmp	r6, #100	; 0x64
 8001096:	d153      	bne.n	8001140 <system_ptr_config+0xc8>
 8001098:	b107      	cbz	r7, 800109c <system_ptr_config+0x24>
 800109a:	7016      	strb	r6, [r2, #0]
	iv_channel.samples[sysi] = 0U;
	ov_channel.samples[sysi] = 0U;
	}
	cs_channel.avg = 0U;
	iv_channel.avg = 0U;
	ov_channel.avg = 0U;
 800109c:	f8c1 4320 	str.w	r4, [r1, #800]	; 0x320
	cs_channel.avg = 0U;
 80010a0:	f8c5 4320 	str.w	r4, [r5, #800]	; 0x320
	iv_channel.avg = 0U;
 80010a4:	f8c0 4320 	str.w	r4, [r0, #800]	; 0x320

	system_time = read_time();
 80010a8:	f7ff feb8 	bl	8000e1c <read_time>
 80010ac:	4b2f      	ldr	r3, [pc, #188]	; (800116c <system_ptr_config+0xf4>)
 80010ae:	6018      	str	r0, [r3, #0]
	last_vsamp = 0U;
 80010b0:	4b2f      	ldr	r3, [pc, #188]	; (8001170 <system_ptr_config+0xf8>)
 80010b2:	601c      	str	r4, [r3, #0]
	last_tsamp = 0U;
 80010b4:	4b2f      	ldr	r3, [pc, #188]	; (8001174 <system_ptr_config+0xfc>)
 80010b6:	601c      	str	r4, [r3, #0]

	system_flags = 0U;
	system_flags |= (ADC_INIT_FLAG|TEMP_INIT_FLAG|PMIC_INIT_FLAG|START_UP_FLAG);
 80010b8:	4b2f      	ldr	r3, [pc, #188]	; (8001178 <system_ptr_config+0x100>)
 80010ba:	f640 0231 	movw	r2, #2097	; 0x831
 80010be:	601a      	str	r2, [r3, #0]
	start_up_flags = 0U;
 80010c0:	4b2e      	ldr	r3, [pc, #184]	; (800117c <system_ptr_config+0x104>)
 80010c2:	601c      	str	r4, [r3, #0]
	adc_conversion_channel = 1U;
 80010c4:	4b2e      	ldr	r3, [pc, #184]	; (8001180 <system_ptr_config+0x108>)
 80010c6:	2201      	movs	r2, #1
 80010c8:	601a      	str	r2, [r3, #0]
	cs_offset = 0U;
 80010ca:	4b2e      	ldr	r3, [pc, #184]	; (8001184 <system_ptr_config+0x10c>)
 80010cc:	801c      	strh	r4, [r3, #0]
	v_ovp = DEFAULT_OVP;
 80010ce:	4b2e      	ldr	r3, [pc, #184]	; (8001188 <system_ptr_config+0x110>)
 80010d0:	f44f 62c8 	mov.w	r2, #1600	; 0x640
 80010d4:	801a      	strh	r2, [r3, #0]
	i_target = DEFAULT_I_TARGET;
 80010d6:	4a2d      	ldr	r2, [pc, #180]	; (800118c <system_ptr_config+0x114>)
 80010d8:	f44f 7396 	mov.w	r3, #300	; 0x12c
 80010dc:	8013      	strh	r3, [r2, #0]
	hs_i_target = DEFAULT_I_TARGET;
 80010de:	4a2c      	ldr	r2, [pc, #176]	; (8001190 <system_ptr_config+0x118>)
 80010e0:	8013      	strh	r3, [r2, #0]
	us_i_target = DEFAULT_I_TARGET;
 80010e2:	4a2c      	ldr	r2, [pc, #176]	; (8001194 <system_ptr_config+0x11c>)
 80010e4:	8013      	strh	r3, [r2, #0]
	th_i_target = DEFAULT_I_TARGET;
 80010e6:	4a2c      	ldr	r2, [pc, #176]	; (8001198 <system_ptr_config+0x120>)
 80010e8:	8013      	strh	r3, [r2, #0]
	v_uvp = DEFAULT_UVP;
 80010ea:	4b2c      	ldr	r3, [pc, #176]	; (800119c <system_ptr_config+0x124>)
 80010ec:	f44f 7234 	mov.w	r2, #720	; 0x2d0
 80010f0:	801a      	strh	r2, [r3, #0]
	exp_ov = EXP_VOLTAGE;
 80010f2:	4b2b      	ldr	r3, [pc, #172]	; (80011a0 <system_ptr_config+0x128>)
 80010f4:	f44f 727a 	mov.w	r2, #1000	; 0x3e8
 80010f8:	801a      	strh	r2, [r3, #0]
	wire_error_count = 0U;
 80010fa:	4b2a      	ldr	r3, [pc, #168]	; (80011a4 <system_ptr_config+0x12c>)
 80010fc:	801c      	strh	r4, [r3, #0]
	stable_count = 0U;
 80010fe:	4b2a      	ldr	r3, [pc, #168]	; (80011a8 <system_ptr_config+0x130>)
 8001100:	701c      	strb	r4, [r3, #0]
	temp_sample_level = 4095U;
 8001102:	4b2a      	ldr	r3, [pc, #168]	; (80011ac <system_ptr_config+0x134>)
 8001104:	f640 72ff 	movw	r2, #4095	; 0xfff
 8001108:	801a      	strh	r2, [r3, #0]
	wire_sample_level = 2047U;
 800110a:	4b29      	ldr	r3, [pc, #164]	; (80011b0 <system_ptr_config+0x138>)
 800110c:	f240 72ff 	movw	r2, #2047	; 0x7ff
 8001110:	801a      	strh	r2, [r3, #0]
	up_button_dbnc = 0U;
 8001112:	4b28      	ldr	r3, [pc, #160]	; (80011b4 <system_ptr_config+0x13c>)
	down_button_dbnc = 0U;
	up_button_hold_count = 0U;
	down_button_hold_count = 0U;
    button_delay = (((system_time)->time_nums)[millis]);
 8001114:	6842      	ldr	r2, [r0, #4]
	up_button_dbnc = 0U;
 8001116:	601c      	str	r4, [r3, #0]
	down_button_dbnc = 0U;
 8001118:	4b27      	ldr	r3, [pc, #156]	; (80011b8 <system_ptr_config+0x140>)
 800111a:	601c      	str	r4, [r3, #0]
	up_button_hold_count = 0U;
 800111c:	4b27      	ldr	r3, [pc, #156]	; (80011bc <system_ptr_config+0x144>)
 800111e:	601c      	str	r4, [r3, #0]
	down_button_hold_count = 0U;
 8001120:	4b27      	ldr	r3, [pc, #156]	; (80011c0 <system_ptr_config+0x148>)
 8001122:	601c      	str	r4, [r3, #0]
    button_delay = (((system_time)->time_nums)[millis]);
 8001124:	4b27      	ldr	r3, [pc, #156]	; (80011c4 <system_ptr_config+0x14c>)
 8001126:	601a      	str	r2, [r3, #0]
    dim_step = 25U;
 8001128:	4b27      	ldr	r3, [pc, #156]	; (80011c8 <system_ptr_config+0x150>)
 800112a:	2219      	movs	r2, #25

	dac_set(0U);
 800112c:	2000      	movs	r0, #0
    dim_step = 25U;
 800112e:	601a      	str	r2, [r3, #0]
	dac_set(0U);
 8001130:	f7ff fe02 	bl	8000d38 <dac_set>

	((RCC)->AHB2ENR) |= (RCC_GPIOB_ENABLE|RCC_GPIOA_ENABLE);
 8001134:	4a25      	ldr	r2, [pc, #148]	; (80011cc <system_ptr_config+0x154>)
 8001136:	6cd3      	ldr	r3, [r2, #76]	; 0x4c
 8001138:	f043 0303 	orr.w	r3, r3, #3
 800113c:	64d3      	str	r3, [r2, #76]	; 0x4c
 800113e:	bdf8      	pop	{r3, r4, r5, r6, r7, pc}
	cs_channel.samples[sysi] = 0U;
 8001140:	f845 4023 	str.w	r4, [r5, r3, lsl #2]
	iv_channel.samples[sysi] = 0U;
 8001144:	f840 4023 	str.w	r4, [r0, r3, lsl #2]
	ov_channel.samples[sysi] = 0U;
 8001148:	f841 4023 	str.w	r4, [r1, r3, lsl #2]
 800114c:	2701      	movs	r7, #1
 800114e:	3301      	adds	r3, #1
 8001150:	e79f      	b.n	8001092 <system_ptr_config+0x1a>
 8001152:	bf00      	nop
 8001154:	2000149c 	.word	0x2000149c
 8001158:	20001174 	.word	0x20001174
 800115c:	20000480 	.word	0x20000480
 8001160:	20000e08 	.word	0x20000e08
 8001164:	20000adc 	.word	0x20000adc
 8001168:	20000e18 	.word	0x20000e18
 800116c:	200014a4 	.word	0x200014a4
 8001170:	200014e0 	.word	0x200014e0
 8001174:	20000ad8 	.word	0x20000ad8
 8001178:	20000e20 	.word	0x20000e20
 800117c:	200014b0 	.word	0x200014b0
 8001180:	20000e10 	.word	0x20000e10
 8001184:	200014c8 	.word	0x200014c8
 8001188:	20000e32 	.word	0x20000e32
 800118c:	20001170 	.word	0x20001170
 8001190:	20000ad4 	.word	0x20000ad4
 8001194:	200014cc 	.word	0x200014cc
 8001198:	200014f0 	.word	0x200014f0
 800119c:	2000115c 	.word	0x2000115c
 80011a0:	20000e30 	.word	0x20000e30
 80011a4:	2000115e 	.word	0x2000115e
 80011a8:	200007a8 	.word	0x200007a8
 80011ac:	200014bc 	.word	0x200014bc
 80011b0:	200014ee 	.word	0x200014ee
 80011b4:	200014d4 	.word	0x200014d4
 80011b8:	20000e1c 	.word	0x20000e1c
 80011bc:	20000e0c 	.word	0x20000e0c
 80011c0:	200014b8 	.word	0x200014b8
 80011c4:	20000e04 	.word	0x20000e04
 80011c8:	200014d8 	.word	0x200014d8
 80011cc:	40021000 	.word	0x40021000

080011d0 <start_up_check>:
}

uint32_t start_up_check(void)
{
if(system_flags & START_UP_FLAG)
 80011d0:	4b02      	ldr	r3, [pc, #8]	; (80011dc <start_up_check+0xc>)
 80011d2:	6818      	ldr	r0, [r3, #0]
{return 1U;}
else
{return 0U;}
}
 80011d4:	f3c0 20c0 	ubfx	r0, r0, #11, #1
 80011d8:	4770      	bx	lr
 80011da:	bf00      	nop
 80011dc:	20000e20 	.word	0x20000e20

080011e0 <start_up_procedure>:


void start_up_procedure(void)
{
 80011e0:	e92d 4ff8 	stmdb	sp!, {r3, r4, r5, r6, r7, r8, r9, sl, fp, lr}
uint8_t action_taken = 0U;
/*Fist loop through mark the system time and set the DAC to half*/
/*Trigger the flag so this block does not execute until another start-up is*/
/*Executed*/
if((start_up_flags & FIRST_LAP_FLAG) == 0U)
 80011e4:	4da7      	ldr	r5, [pc, #668]	; (8001484 <start_up_procedure+0x2a4>)
 80011e6:	4ea8      	ldr	r6, [pc, #672]	; (8001488 <start_up_procedure+0x2a8>)
 80011e8:	682a      	ldr	r2, [r5, #0]
 80011ea:	49a8      	ldr	r1, [pc, #672]	; (800148c <start_up_procedure+0x2ac>)
 80011ec:	f012 0001 	ands.w	r0, r2, #1
 80011f0:	462c      	mov	r4, r5
 80011f2:	d116      	bne.n	8001222 <start_up_procedure+0x42>
{
stable_count = 0U;
 80011f4:	4ba6      	ldr	r3, [pc, #664]	; (8001490 <start_up_procedure+0x2b0>)
 80011f6:	7018      	strb	r0, [r3, #0]
i_target = hs_i_target;
 80011f8:	4ba6      	ldr	r3, [pc, #664]	; (8001494 <start_up_procedure+0x2b4>)
 80011fa:	881a      	ldrh	r2, [r3, #0]
 80011fc:	4ba6      	ldr	r3, [pc, #664]	; (8001498 <start_up_procedure+0x2b8>)
 80011fe:	801a      	strh	r2, [r3, #0]
sample_end = (((system_time)->time_nums)[seconds]) + 2U;
 8001200:	6833      	ldr	r3, [r6, #0]
 8001202:	689b      	ldr	r3, [r3, #8]
 8001204:	1c9a      	adds	r2, r3, #2
if(sample_end >= 60U)
 8001206:	2a3b      	cmp	r2, #59	; 0x3b
{sample_end-=60U;}
 8001208:	bf84      	itt	hi
 800120a:	3b3a      	subhi	r3, #58	; 0x3a
 800120c:	600b      	strhi	r3, [r1, #0]
dac_set(wire_sample_level);
 800120e:	4ba3      	ldr	r3, [pc, #652]	; (800149c <start_up_procedure+0x2bc>)
sample_end = (((system_time)->time_nums)[seconds]) + 2U;
 8001210:	bf98      	it	ls
 8001212:	600a      	strls	r2, [r1, #0]
dac_set(wire_sample_level);
 8001214:	8818      	ldrh	r0, [r3, #0]
 8001216:	f7ff fd8f 	bl	8000d38 <dac_set>
start_up_flags = FIRST_LAP_FLAG;
 800121a:	2301      	movs	r3, #1
            duty_cycle_decrement(1U);
            i_target = hs_i_target;
            }

            if(((&iv_channel)->avg) > (INPUT_BAD + VOLTAGE_HYS))
            {start_up_flags &= ~(INPUT_ERR_FLAG);}
 800121c:	6023      	str	r3, [r4, #0]
 800121e:	e8bd 8ff8 	ldmia.w	sp!, {r3, r4, r5, r6, r7, r8, r9, sl, fp, pc}
if((((system_time)->time_nums)[seconds]) == sample_end)
 8001222:	6837      	ldr	r7, [r6, #0]
 8001224:	680b      	ldr	r3, [r1, #0]
 8001226:	68b8      	ldr	r0, [r7, #8]
 8001228:	4298      	cmp	r0, r3
 800122a:	d128      	bne.n	800127e <start_up_procedure+0x9e>
	if(system_flags & TEMP_INIT_FLAG)
 800122c:	f8df e28c 	ldr.w	lr, [pc, #652]	; 80014bc <start_up_procedure+0x2dc>
 8001230:	f8de 3000 	ldr.w	r3, [lr]
 8001234:	f013 0c10 	ands.w	ip, r3, #16
 8001238:	d007      	beq.n	800124a <start_up_procedure+0x6a>
	sample_end = (((system_time)->time_nums)[seconds])+2U;
 800123a:	1c83      	adds	r3, r0, #2
	if(sample_end >= 60U)
 800123c:	2b3b      	cmp	r3, #59	; 0x3b
	{sample_end -= 60U;}
 800123e:	bf8a      	itet	hi
 8001240:	383a      	subhi	r0, #58	; 0x3a
	sample_end = (((system_time)->time_nums)[seconds])+2U;
 8001242:	600b      	strls	r3, [r1, #0]
	{sample_end -= 60U;}
 8001244:	6008      	strhi	r0, [r1, #0]
 8001246:	e8bd 8ff8 	ldmia.w	sp!, {r3, r4, r5, r6, r7, r8, r9, sl, fp, pc}
    if(((&ex_temp)->avg) > SHORT_WIRE)
 800124a:	4995      	ldr	r1, [pc, #596]	; (80014a0 <start_up_procedure+0x2c0>)
 800124c:	f8d1 1320 	ldr.w	r1, [r1, #800]	; 0x320
 8001250:	29c8      	cmp	r1, #200	; 0xc8
 8001252:	d903      	bls.n	800125c <start_up_procedure+0x7c>
    if(((&ex_temp)->avg) < OPEN_WIRE)
 8001254:	f240 40dc 	movw	r0, #1244	; 0x4dc
 8001258:	4281      	cmp	r1, r0
 800125a:	d90d      	bls.n	8001278 <start_up_procedure+0x98>
     system_flags &= ~(START_UP_FLAG);
 800125c:	f423 6300 	bic.w	r3, r3, #2048	; 0x800
 8001260:	f443 6380 	orr.w	r3, r3, #1024	; 0x400
     start_up_flags &= 0U;
 8001264:	f8c5 c000 	str.w	ip, [r5]
     system_flags &= ~(START_UP_FLAG);
 8001268:	f8ce 3000 	str.w	r3, [lr]
		    wire_error_count += 1U;
 800126c:	4a8d      	ldr	r2, [pc, #564]	; (80014a4 <start_up_procedure+0x2c4>)
 800126e:	8813      	ldrh	r3, [r2, #0]
 8001270:	3301      	adds	r3, #1
 8001272:	8013      	strh	r3, [r2, #0]
		    return;
 8001274:	e8bd 8ff8 	ldmia.w	sp!, {r3, r4, r5, r6, r7, r8, r9, sl, fp, pc}
    {start_up_flags |= NO_OPEN_FLAG;}
 8001278:	f042 0206 	orr.w	r2, r2, #6
 800127c:	602a      	str	r2, [r5, #0]
if((start_up_flags & (NO_SHORT_FLAG|NO_OPEN_FLAG)) == (NO_SHORT_FLAG|NO_OPEN_FLAG))
 800127e:	6823      	ldr	r3, [r4, #0]
 8001280:	f003 0206 	and.w	r2, r3, #6
 8001284:	2a06      	cmp	r2, #6
 8001286:	d1ca      	bne.n	800121e <start_up_procedure+0x3e>
	if((start_up_flags & RELAY_ENABLE_FLAG) == 0U)
 8001288:	f013 0f08 	tst.w	r3, #8
 800128c:	4d86      	ldr	r5, [pc, #536]	; (80014a8 <start_up_procedure+0x2c8>)
 800128e:	d132      	bne.n	80012f6 <start_up_procedure+0x116>


void relay_control(uint8_t on_off)
{
if(on_off)
{((GPIOA)->ODR) |= RELAY_PIN;}
 8001290:	f04f 4190 	mov.w	r1, #1207959552	; 0x48000000
	start_up_flags |= RELAY_ENABLE_FLAG;
 8001294:	f043 0308 	orr.w	r3, r3, #8
{((GPIOA)->ODR) |= RELAY_PIN;}
 8001298:	694a      	ldr	r2, [r1, #20]
 800129a:	f042 0280 	orr.w	r2, r2, #128	; 0x80
 800129e:	614a      	str	r2, [r1, #20]
	start_up_flags |= RELAY_ENABLE_FLAG;
 80012a0:	6023      	str	r3, [r4, #0]
	stup_action = ((system_time)->time_nums)[millis] + RELAY_DELAY;
 80012a2:	687b      	ldr	r3, [r7, #4]
 80012a4:	f503 72fa 	add.w	r2, r3, #500	; 0x1f4
		if(stup_action >= 1000U)
 80012a8:	f5b2 7f7a 	cmp.w	r2, #1000	; 0x3e8
		{stup_action -= 1000U;}
 80012ac:	bf2a      	itet	cs
 80012ae:	f5a3 73fa 	subcs.w	r3, r3, #500	; 0x1f4
	stup_action = ((system_time)->time_nums)[millis] + RELAY_DELAY;
 80012b2:	602a      	strcc	r2, [r5, #0]
		{stup_action -= 1000U;}
 80012b4:	602b      	strcs	r3, [r5, #0]
	if(start_up_flags & RELAY_ENGAGE_FLAG)
 80012b6:	6823      	ldr	r3, [r4, #0]
 80012b8:	06d9      	lsls	r1, r3, #27
 80012ba:	d5b0      	bpl.n	800121e <start_up_procedure+0x3e>
		if((start_up_flags & PMIC_STUP_FLAG) == 0U)
 80012bc:	069a      	lsls	r2, r3, #26
 80012be:	d424      	bmi.n	800130a <start_up_procedure+0x12a>
		set_duty_cycle(3U);
 80012c0:	2003      	movs	r0, #3
 80012c2:	f001 fa4d 	bl	8002760 <set_duty_cycle>
		buck_mode();
 80012c6:	f001 f965 	bl	8002594 <buck_mode>
		cs_offset = ((&cs_channel)->avg) - 40U;
 80012ca:	4b78      	ldr	r3, [pc, #480]	; (80014ac <start_up_procedure+0x2cc>)
 80012cc:	4a78      	ldr	r2, [pc, #480]	; (80014b0 <start_up_procedure+0x2d0>)
 80012ce:	f8d3 3320 	ldr.w	r3, [r3, #800]	; 0x320
 80012d2:	3b28      	subs	r3, #40	; 0x28
 80012d4:	8013      	strh	r3, [r2, #0]
		stup_action = (((system_time)->time_nums)[millis])+STUP_DELAY;
 80012d6:	6833      	ldr	r3, [r6, #0]
 80012d8:	685b      	ldr	r3, [r3, #4]
 80012da:	f103 0232 	add.w	r2, r3, #50	; 0x32
			if(stup_action >= 1000U)
 80012de:	f5b2 7f7a 	cmp.w	r2, #1000	; 0x3e8
			{stup_action -= 1000U;}
 80012e2:	bf24      	itt	cs
 80012e4:	f2a3 33b6 	subwcs	r3, r3, #950	; 0x3b6
 80012e8:	602b      	strcs	r3, [r5, #0]
        start_up_flags |= PMIC_STUP_FLAG;
 80012ea:	6823      	ldr	r3, [r4, #0]
		stup_action = (((system_time)->time_nums)[millis])+STUP_DELAY;
 80012ec:	bf38      	it	cc
 80012ee:	602a      	strcc	r2, [r5, #0]
        start_up_flags |= PMIC_STUP_FLAG;
 80012f0:	f043 0320 	orr.w	r3, r3, #32
 80012f4:	e792      	b.n	800121c <start_up_procedure+0x3c>
	 if((start_up_flags & RELAY_ENGAGE_FLAG) == 0U)
 80012f6:	06d8      	lsls	r0, r3, #27
 80012f8:	d4e0      	bmi.n	80012bc <start_up_procedure+0xdc>
     if((((system_time)->time_nums)[millis]) == stup_action)
 80012fa:	6879      	ldr	r1, [r7, #4]
 80012fc:	682a      	ldr	r2, [r5, #0]
 80012fe:	4291      	cmp	r1, r2
 8001300:	d18d      	bne.n	800121e <start_up_procedure+0x3e>
     {start_up_flags |= RELAY_ENGAGE_FLAG;}
 8001302:	f043 0310 	orr.w	r3, r3, #16
 8001306:	6023      	str	r3, [r4, #0]
 8001308:	e7d5      	b.n	80012b6 <start_up_procedure+0xd6>
            if((((system_time)->time_nums)[millis]) == stup_action)
 800130a:	687a      	ldr	r2, [r7, #4]
 800130c:	682b      	ldr	r3, [r5, #0]
 800130e:	429a      	cmp	r2, r3
 8001310:	d185      	bne.n	800121e <start_up_procedure+0x3e>
			if(((&ov_channel)->avg) < (v_ovp - VOLTAGE_HYS))
 8001312:	4a68      	ldr	r2, [pc, #416]	; (80014b4 <start_up_procedure+0x2d4>)
 8001314:	4968      	ldr	r1, [pc, #416]	; (80014b8 <start_up_procedure+0x2d8>)
 8001316:	8813      	ldrh	r3, [r2, #0]
 8001318:	f8d1 0320 	ldr.w	r0, [r1, #800]	; 0x320
 800131c:	f8df a178 	ldr.w	sl, [pc, #376]	; 8001498 <start_up_procedure+0x2b8>
 8001320:	4f63      	ldr	r7, [pc, #396]	; (80014b0 <start_up_procedure+0x2d0>)
 8001322:	f8df 8188 	ldr.w	r8, [pc, #392]	; 80014ac <start_up_procedure+0x2cc>
 8001326:	3b0a      	subs	r3, #10
 8001328:	4298      	cmp	r0, r3
 800132a:	4689      	mov	r9, r1
 800132c:	4693      	mov	fp, r2
 800132e:	d252      	bcs.n	80013d6 <start_up_procedure+0x1f6>
			if((((&cs_channel)->avg)-cs_offset) < (i_target- CURRENT_HYS))
 8001330:	f8d8 2320 	ldr.w	r2, [r8, #800]	; 0x320
 8001334:	883b      	ldrh	r3, [r7, #0]
 8001336:	f8ba 1000 	ldrh.w	r1, [sl]
 800133a:	eba2 0e03 	sub.w	lr, r2, r3
 800133e:	1f48      	subs	r0, r1, #5
 8001340:	4586      	cmp	lr, r0
 8001342:	d246      	bcs.n	80013d2 <start_up_procedure+0x1f2>
			if((i_target - (((&cs_channel)->avg)-cs_offset)) > 100U)
 8001344:	440b      	add	r3, r1
 8001346:	1a9b      	subs	r3, r3, r2
 8001348:	2b64      	cmp	r3, #100	; 0x64
			{duty_cycle_increment(15U);action_taken = 1U;}
 800134a:	bf8c      	ite	hi
 800134c:	200f      	movhi	r0, #15
			{duty_cycle_increment(1U);action_taken = 1U;}
 800134e:	2001      	movls	r0, #1
 8001350:	f001 f9c2 	bl	80026d8 <duty_cycle_increment>
 8001354:	2301      	movs	r3, #1
			if(((&cs_channel)->avg) < cs_offset)
 8001356:	883a      	ldrh	r2, [r7, #0]
 8001358:	f8d8 1320 	ldr.w	r1, [r8, #800]	; 0x320
 800135c:	4291      	cmp	r1, r2
 800135e:	d203      	bcs.n	8001368 <start_up_procedure+0x188>
			{duty_cycle_increment(15U);action_taken = 1U;}
 8001360:	200f      	movs	r0, #15
 8001362:	f001 f9b9 	bl	80026d8 <duty_cycle_increment>
 8001366:	2301      	movs	r3, #1
			if((((&cs_channel)->avg)-cs_offset) > (i_target+CURRENT_HYS))
 8001368:	f8d8 2320 	ldr.w	r2, [r8, #800]	; 0x320
 800136c:	8839      	ldrh	r1, [r7, #0]
 800136e:	1a51      	subs	r1, r2, r1
 8001370:	f8ba 2000 	ldrh.w	r2, [sl]
 8001374:	3205      	adds	r2, #5
 8001376:	4291      	cmp	r1, r2
 8001378:	d903      	bls.n	8001382 <start_up_procedure+0x1a2>
			{duty_cycle_decrement(1U);action_taken = 1U;}
 800137a:	2001      	movs	r0, #1
 800137c:	f001 f9d0 	bl	8002720 <duty_cycle_decrement>
 8001380:	2301      	movs	r3, #1
			if(((&ov_channel)->avg) > (v_ovp+VOLTAGE_HYS))
 8001382:	f8bb 2000 	ldrh.w	r2, [fp]
 8001386:	f8d9 1320 	ldr.w	r1, [r9, #800]	; 0x320
 800138a:	320a      	adds	r2, #10
 800138c:	4291      	cmp	r1, r2
 800138e:	d903      	bls.n	8001398 <start_up_procedure+0x1b8>
			{duty_cycle_decrement(1U);action_taken = 1U;}
 8001390:	2001      	movs	r0, #1
 8001392:	f001 f9c5 	bl	8002720 <duty_cycle_decrement>
 8001396:	2301      	movs	r3, #1
			if(((&cs_channel)->avg) > cs_offset)
 8001398:	f8d8 2320 	ldr.w	r2, [r8, #800]	; 0x320
 800139c:	8839      	ldrh	r1, [r7, #0]
 800139e:	428a      	cmp	r2, r1
 80013a0:	d91b      	bls.n	80013da <start_up_procedure+0x1fa>
			if(((((&cs_channel)->avg)-cs_offset) > (i_target - CURRENT_HYS)))
 80013a2:	1a52      	subs	r2, r2, r1
 80013a4:	f8ba 1000 	ldrh.w	r1, [sl]
 80013a8:	3905      	subs	r1, #5
 80013aa:	428a      	cmp	r2, r1
 80013ac:	d915      	bls.n	80013da <start_up_procedure+0x1fa>
			if((((&ov_channel)->new_samp) < EXP_VOLTAGE))
 80013ae:	f8d9 2324 	ldr.w	r2, [r9, #804]	; 0x324
 80013b2:	f5b2 7f7a 	cmp.w	r2, #1000	; 0x3e8
 80013b6:	d210      	bcs.n	80013da <start_up_procedure+0x1fa>
		    lockout_mode();
 80013b8:	f001 f90e 	bl	80025d8 <lockout_mode>
		    system_flags &= ~(START_UP_FLAG);
 80013bc:	4a3f      	ldr	r2, [pc, #252]	; (80014bc <start_up_procedure+0x2dc>)
			start_up_flags |= POWER_SHORT_FLAG;
 80013be:	f44f 7380 	mov.w	r3, #256	; 0x100
 80013c2:	6023      	str	r3, [r4, #0]
		    system_flags &= ~(START_UP_FLAG);
 80013c4:	6813      	ldr	r3, [r2, #0]
 80013c6:	f423 6300 	bic.w	r3, r3, #2048	; 0x800
 80013ca:	f443 5380 	orr.w	r3, r3, #4096	; 0x1000
 80013ce:	6013      	str	r3, [r2, #0]
 80013d0:	e74c      	b.n	800126c <start_up_procedure+0x8c>
uint8_t action_taken = 0U;
 80013d2:	2300      	movs	r3, #0
 80013d4:	e7bf      	b.n	8001356 <start_up_procedure+0x176>
 80013d6:	2300      	movs	r3, #0
 80013d8:	e7c6      	b.n	8001368 <start_up_procedure+0x188>
            if(action_taken)
 80013da:	b36b      	cbz	r3, 8001438 <start_up_procedure+0x258>
            stup_action = (((system_time)->time_nums)[millis])+STUP_DELAY;
 80013dc:	6833      	ldr	r3, [r6, #0]
 80013de:	685b      	ldr	r3, [r3, #4]
 80013e0:	f103 0232 	add.w	r2, r3, #50	; 0x32
            	if(stup_action >= 1000U)
 80013e4:	f5b2 7f7a 	cmp.w	r2, #1000	; 0x3e8
            	{stup_action -= 1000U;}
 80013e8:	bf2a      	itet	cs
 80013ea:	f2a3 33b6 	subwcs	r3, r3, #950	; 0x3b6
            stup_action = (((system_time)->time_nums)[millis])+STUP_DELAY;
 80013ee:	602a      	strcc	r2, [r5, #0]
            	{stup_action -= 1000U;}
 80013f0:	602b      	strcs	r3, [r5, #0]
            if(((&iv_channel)->avg) < (INPUT_BAD - VOLTAGE_HYS))
 80013f2:	4e33      	ldr	r6, [pc, #204]	; (80014c0 <start_up_procedure+0x2e0>)
 80013f4:	f8d6 1320 	ldr.w	r1, [r6, #800]	; 0x320
 80013f8:	f240 3215 	movw	r2, #789	; 0x315
 80013fc:	4291      	cmp	r1, r2
 80013fe:	d810      	bhi.n	8001422 <start_up_procedure+0x242>
            start_up_flags |= (INPUT_ERR_FLAG|CURRENT_MOD_FLAG);
 8001400:	6823      	ldr	r3, [r4, #0]
            hs_i_target = (((&cs_channel)->avg)-cs_offset)-25U;
 8001402:	883a      	ldrh	r2, [r7, #0]
 8001404:	4d23      	ldr	r5, [pc, #140]	; (8001494 <start_up_procedure+0x2b4>)
            start_up_flags |= (INPUT_ERR_FLAG|CURRENT_MOD_FLAG);
 8001406:	f043 03c0 	orr.w	r3, r3, #192	; 0xc0
 800140a:	6023      	str	r3, [r4, #0]
            hs_i_target = (((&cs_channel)->avg)-cs_offset)-25U;
 800140c:	f8d8 3320 	ldr.w	r3, [r8, #800]	; 0x320
 8001410:	1a9b      	subs	r3, r3, r2
 8001412:	3b19      	subs	r3, #25
            duty_cycle_decrement(1U);
 8001414:	2001      	movs	r0, #1
            hs_i_target = (((&cs_channel)->avg)-cs_offset)-25U;
 8001416:	802b      	strh	r3, [r5, #0]
            duty_cycle_decrement(1U);
 8001418:	f001 f982 	bl	8002720 <duty_cycle_decrement>
            i_target = hs_i_target;
 800141c:	882b      	ldrh	r3, [r5, #0]
 800141e:	f8aa 3000 	strh.w	r3, [sl]
            if(((&iv_channel)->avg) > (INPUT_BAD + VOLTAGE_HYS))
 8001422:	f8d6 2320 	ldr.w	r2, [r6, #800]	; 0x320
 8001426:	f240 332a 	movw	r3, #810	; 0x32a
 800142a:	429a      	cmp	r2, r3
 800142c:	f67f aef7 	bls.w	800121e <start_up_procedure+0x3e>
            {start_up_flags &= ~(INPUT_ERR_FLAG);}
 8001430:	6823      	ldr	r3, [r4, #0]
 8001432:	f023 0340 	bic.w	r3, r3, #64	; 0x40
 8001436:	e6f1      	b.n	800121c <start_up_procedure+0x3c>
            if((start_up_flags & INPUT_ERR_FLAG) == 0U)
 8001438:	6823      	ldr	r3, [r4, #0]
 800143a:	065b      	lsls	r3, r3, #25
 800143c:	d4d9      	bmi.n	80013f2 <start_up_procedure+0x212>
            stup_action = (((system_time)->time_nums)[millis])+STUP_DELAY;
 800143e:	6833      	ldr	r3, [r6, #0]
 8001440:	685b      	ldr	r3, [r3, #4]
 8001442:	f103 0232 	add.w	r2, r3, #50	; 0x32
            	if(stup_action >= 1000U)
 8001446:	f5b2 7f7a 	cmp.w	r2, #1000	; 0x3e8
            stup_action = (((system_time)->time_nums)[millis])+STUP_DELAY;
 800144a:	bf38      	it	cc
 800144c:	602a      	strcc	r2, [r5, #0]
            stable_count += 1U;
 800144e:	4a10      	ldr	r2, [pc, #64]	; (8001490 <start_up_procedure+0x2b0>)
            	{stup_action -= 1000U;}
 8001450:	bf24      	itt	cs
 8001452:	f2a3 33b6 	subwcs	r3, r3, #950	; 0x3b6
 8001456:	602b      	strcs	r3, [r5, #0]
            stable_count += 1U;
 8001458:	7813      	ldrb	r3, [r2, #0]
 800145a:	3301      	adds	r3, #1
 800145c:	b2db      	uxtb	r3, r3
            if(stable_count >= 100U)
 800145e:	2b63      	cmp	r3, #99	; 0x63
            stable_count += 1U;
 8001460:	7013      	strb	r3, [r2, #0]
            if(stable_count >= 100U)
 8001462:	d9c6      	bls.n	80013f2 <start_up_procedure+0x212>
            dac_set(temp_sample_level);
 8001464:	4b17      	ldr	r3, [pc, #92]	; (80014c4 <start_up_procedure+0x2e4>)
 8001466:	8818      	ldrh	r0, [r3, #0]
 8001468:	f7ff fc66 	bl	8000d38 <dac_set>
            system_flags &= ~(START_UP_FLAG);
 800146c:	4a13      	ldr	r2, [pc, #76]	; (80014bc <start_up_procedure+0x2dc>)
            ex_sample_count = 0U;
 800146e:	4916      	ldr	r1, [pc, #88]	; (80014c8 <start_up_procedure+0x2e8>)
            system_flags &= ~(START_UP_FLAG);
 8001470:	6813      	ldr	r3, [r2, #0]
 8001472:	f423 6300 	bic.w	r3, r3, #2048	; 0x800
            ex_sample_count = 0U;
 8001476:	2000      	movs	r0, #0
            system_flags |= (PMIC_ENABLE_FLAG|TEMP_INIT_FLAG);
 8001478:	f043 0350 	orr.w	r3, r3, #80	; 0x50
            ex_sample_count = 0U;
 800147c:	6008      	str	r0, [r1, #0]
            system_flags |= (PMIC_ENABLE_FLAG|TEMP_INIT_FLAG);
 800147e:	6013      	str	r3, [r2, #0]
 8001480:	e7b7      	b.n	80013f2 <start_up_procedure+0x212>
 8001482:	bf00      	nop
 8001484:	200014b0 	.word	0x200014b0
 8001488:	200014a4 	.word	0x200014a4
 800148c:	20000e2c 	.word	0x20000e2c
 8001490:	200007a8 	.word	0x200007a8
 8001494:	20000ad4 	.word	0x20000ad4
 8001498:	20001170 	.word	0x20001170
 800149c:	200014ee 	.word	0x200014ee
 80014a0:	20000e34 	.word	0x20000e34
 80014a4:	2000115e 	.word	0x2000115e
 80014a8:	20000e28 	.word	0x20000e28
 80014ac:	20000adc 	.word	0x20000adc
 80014b0:	200014c8 	.word	0x200014c8
 80014b4:	20000e32 	.word	0x20000e32
 80014b8:	20000480 	.word	0x20000480
 80014bc:	20000e20 	.word	0x20000e20
 80014c0:	20001174 	.word	0x20001174
 80014c4:	200014bc 	.word	0x200014bc
 80014c8:	20001168 	.word	0x20001168

080014cc <button_managment>:
if((((system_time)->time_nums)[millis]) != button_delay)
 80014cc:	485c      	ldr	r0, [pc, #368]	; (8001640 <button_managment+0x174>)
 80014ce:	495d      	ldr	r1, [pc, #372]	; (8001644 <button_managment+0x178>)
 80014d0:	6803      	ldr	r3, [r0, #0]
 80014d2:	685a      	ldr	r2, [r3, #4]
 80014d4:	680b      	ldr	r3, [r1, #0]
 80014d6:	429a      	cmp	r2, r3
{
 80014d8:	b5f0      	push	{r4, r5, r6, r7, lr}
if((((system_time)->time_nums)[millis]) != button_delay)
 80014da:	d03e      	beq.n	800155a <button_managment+0x8e>
	up_button_dbnc = up_button_dbnc << 1U;
 80014dc:	4b5a      	ldr	r3, [pc, #360]	; (8001648 <button_managment+0x17c>)
	down_button_dbnc = down_button_dbnc << 1U;
 80014de:	4a5b      	ldr	r2, [pc, #364]	; (800164c <button_managment+0x180>)
	up_button_dbnc = up_button_dbnc << 1U;
 80014e0:	681d      	ldr	r5, [r3, #0]
	down_button_dbnc = down_button_dbnc << 1U;
 80014e2:	6814      	ldr	r4, [r2, #0]
	if((((GPIOB)->IDR) & UP_BUTTON) == 0U)
 80014e4:	4e5a      	ldr	r6, [pc, #360]	; (8001650 <button_managment+0x184>)
	up_button_dbnc = up_button_dbnc << 1U;
 80014e6:	006d      	lsls	r5, r5, #1
	down_button_dbnc = down_button_dbnc << 1U;
 80014e8:	0064      	lsls	r4, r4, #1
	up_button_dbnc = up_button_dbnc << 1U;
 80014ea:	601d      	str	r5, [r3, #0]
	down_button_dbnc = down_button_dbnc << 1U;
 80014ec:	6014      	str	r4, [r2, #0]
	if((((GPIOB)->IDR) & UP_BUTTON) == 0U)
 80014ee:	6937      	ldr	r7, [r6, #16]
 80014f0:	067f      	lsls	r7, r7, #25
	{up_button_dbnc |= 1U;}
 80014f2:	bf5c      	itt	pl
 80014f4:	f045 0501 	orrpl.w	r5, r5, #1
 80014f8:	601d      	strpl	r5, [r3, #0]
	if((((GPIOB)->IDR) & DOWN_BUTTON) == 0U)
 80014fa:	6935      	ldr	r5, [r6, #16]
	if(up_button_dbnc == BUTTON_PRESSED)
 80014fc:	681b      	ldr	r3, [r3, #0]
	if((((GPIOB)->IDR) & DOWN_BUTTON) == 0U)
 80014fe:	062d      	lsls	r5, r5, #24
	{down_button_dbnc |= 1U;}
 8001500:	bf5c      	itt	pl
 8001502:	f044 0401 	orrpl.w	r4, r4, #1
 8001506:	6014      	strpl	r4, [r2, #0]
	if(up_button_dbnc == BUTTON_PRESSED)
 8001508:	f06f 4440 	mvn.w	r4, #3221225472	; 0xc0000000
 800150c:	42a3      	cmp	r3, r4
 800150e:	d125      	bne.n	800155c <button_managment+0x90>
	{up_button_hold_count = 0U;}
 8001510:	4b50      	ldr	r3, [pc, #320]	; (8001654 <button_managment+0x188>)
 8001512:	2400      	movs	r4, #0
 8001514:	601c      	str	r4, [r3, #0]
	if(down_button_dbnc == BUTTON_PRESSED)
 8001516:	6813      	ldr	r3, [r2, #0]
 8001518:	f06f 4440 	mvn.w	r4, #3221225472	; 0xc0000000
 800151c:	42a3      	cmp	r3, r4
 800151e:	d16c      	bne.n	80015fa <button_managment+0x12e>
	{down_button_hold_count = 0U;}
 8001520:	4b4d      	ldr	r3, [pc, #308]	; (8001658 <button_managment+0x18c>)
 8001522:	2400      	movs	r4, #0
 8001524:	601c      	str	r4, [r3, #0]
    if(down_button_dbnc == BUTTON_RELEASED)
 8001526:	6813      	ldr	r3, [r2, #0]
 8001528:	f1b3 4f40 	cmp.w	r3, #3221225472	; 0xc0000000
 800152c:	d112      	bne.n	8001554 <button_managment+0x88>
    	if(us_i_target > (cs_offset + dim_step))
 800152e:	4a4b      	ldr	r2, [pc, #300]	; (800165c <button_managment+0x190>)
 8001530:	4b4b      	ldr	r3, [pc, #300]	; (8001660 <button_managment+0x194>)
 8001532:	4c4c      	ldr	r4, [pc, #304]	; (8001664 <button_managment+0x198>)
 8001534:	6816      	ldr	r6, [r2, #0]
 8001536:	881b      	ldrh	r3, [r3, #0]
 8001538:	8827      	ldrh	r7, [r4, #0]
 800153a:	4a4b      	ldr	r2, [pc, #300]	; (8001668 <button_managment+0x19c>)
 800153c:	4433      	add	r3, r6
 800153e:	429f      	cmp	r7, r3
 8001540:	d97b      	bls.n	800163a <button_managment+0x16e>
    	   if(us_i_target > i_target)
 8001542:	8813      	ldrh	r3, [r2, #0]
 8001544:	429f      	cmp	r7, r3
    	   {us_i_target = i_target;}
 8001546:	bf88      	it	hi
 8001548:	8023      	strhhi	r3, [r4, #0]
    	   us_i_target -= dim_step;
 800154a:	8823      	ldrh	r3, [r4, #0]
 800154c:	1b9b      	subs	r3, r3, r6
 800154e:	b29b      	uxth	r3, r3
 8001550:	8023      	strh	r3, [r4, #0]
    	i_target = us_i_target;
 8001552:	8013      	strh	r3, [r2, #0]
	button_delay = (((system_time)->time_nums)[millis]);
 8001554:	6803      	ldr	r3, [r0, #0]
 8001556:	685b      	ldr	r3, [r3, #4]
 8001558:	600b      	str	r3, [r1, #0]
 800155a:	bdf0      	pop	{r4, r5, r6, r7, pc}
	if(up_button_dbnc == BUTTON_HELD)
 800155c:	1c5f      	adds	r7, r3, #1
 800155e:	d127      	bne.n	80015b0 <button_managment+0xe4>
	up_button_hold_count += 1U;
 8001560:	4c3c      	ldr	r4, [pc, #240]	; (8001654 <button_managment+0x188>)
 8001562:	6823      	ldr	r3, [r4, #0]
 8001564:	3301      	adds	r3, #1
	if(up_button_hold_count == 50U)
 8001566:	2b32      	cmp	r3, #50	; 0x32
	up_button_hold_count += 1U;
 8001568:	6023      	str	r3, [r4, #0]
	if(up_button_hold_count == 50U)
 800156a:	d1d4      	bne.n	8001516 <button_managment+0x4a>
	if(us_i_target < (hs_i_target- dim_step))
 800156c:	4c3f      	ldr	r4, [pc, #252]	; (800166c <button_managment+0x1a0>)
 800156e:	4e3b      	ldr	r6, [pc, #236]	; (800165c <button_managment+0x190>)
 8001570:	4d3c      	ldr	r5, [pc, #240]	; (8001664 <button_managment+0x198>)
 8001572:	8824      	ldrh	r4, [r4, #0]
 8001574:	6836      	ldr	r6, [r6, #0]
 8001576:	882b      	ldrh	r3, [r5, #0]
 8001578:	1ba7      	subs	r7, r4, r6
 800157a:	42bb      	cmp	r3, r7
 800157c:	d20e      	bcs.n	800159c <button_managment+0xd0>
		if(us_i_target < (th_i_target - dim_step))
 800157e:	4c3c      	ldr	r4, [pc, #240]	; (8001670 <button_managment+0x1a4>)
 8001580:	8824      	ldrh	r4, [r4, #0]
 8001582:	1ba7      	subs	r7, r4, r6
 8001584:	42bb      	cmp	r3, r7
			us_i_target += dim_step;
 8001586:	bf38      	it	cc
 8001588:	199b      	addcc	r3, r3, r6
 800158a:	4f37      	ldr	r7, [pc, #220]	; (8001668 <button_managment+0x19c>)
		us_i_target = th_i_target;
 800158c:	bf2f      	iteee	cs
 800158e:	802c      	strhcs	r4, [r5, #0]
			us_i_target += dim_step;
 8001590:	b29b      	uxthcc	r3, r3
 8001592:	802b      	strhcc	r3, [r5, #0]
			i_target = us_i_target;
 8001594:	803b      	strhcc	r3, [r7, #0]
		i_target = th_i_target;
 8001596:	bf28      	it	cs
 8001598:	803c      	strhcs	r4, [r7, #0]
 800159a:	e7b9      	b.n	8001510 <button_managment+0x44>
	if((system_flags & THERMAL_CON_FLAG) == 0U)
 800159c:	4b35      	ldr	r3, [pc, #212]	; (8001674 <button_managment+0x1a8>)
 800159e:	681b      	ldr	r3, [r3, #0]
 80015a0:	05de      	lsls	r6, r3, #23
 80015a2:	d4b5      	bmi.n	8001510 <button_managment+0x44>
	th_i_target = hs_i_target;
 80015a4:	4b32      	ldr	r3, [pc, #200]	; (8001670 <button_managment+0x1a4>)
	us_i_target = hs_i_target;
 80015a6:	802c      	strh	r4, [r5, #0]
	th_i_target = hs_i_target;
 80015a8:	801c      	strh	r4, [r3, #0]
	i_target = hs_i_target;
 80015aa:	4b2f      	ldr	r3, [pc, #188]	; (8001668 <button_managment+0x19c>)
 80015ac:	801c      	strh	r4, [r3, #0]
 80015ae:	e7af      	b.n	8001510 <button_managment+0x44>
	if(up_button_dbnc == BUTTON_RELEASED)
 80015b0:	f1b3 4f40 	cmp.w	r3, #3221225472	; 0xc0000000
 80015b4:	d1af      	bne.n	8001516 <button_managment+0x4a>
		if(us_i_target < (hs_i_target- dim_step))
 80015b6:	4c2d      	ldr	r4, [pc, #180]	; (800166c <button_managment+0x1a0>)
 80015b8:	4e28      	ldr	r6, [pc, #160]	; (800165c <button_managment+0x190>)
 80015ba:	4d2a      	ldr	r5, [pc, #168]	; (8001664 <button_managment+0x198>)
 80015bc:	8824      	ldrh	r4, [r4, #0]
 80015be:	6836      	ldr	r6, [r6, #0]
 80015c0:	882b      	ldrh	r3, [r5, #0]
 80015c2:	1ba7      	subs	r7, r4, r6
 80015c4:	42bb      	cmp	r3, r7
 80015c6:	d20e      	bcs.n	80015e6 <button_managment+0x11a>
			if(us_i_target < (th_i_target - dim_step))
 80015c8:	4c29      	ldr	r4, [pc, #164]	; (8001670 <button_managment+0x1a4>)
 80015ca:	8824      	ldrh	r4, [r4, #0]
 80015cc:	1ba7      	subs	r7, r4, r6
 80015ce:	42bb      	cmp	r3, r7
				us_i_target += dim_step;
 80015d0:	bf38      	it	cc
 80015d2:	199b      	addcc	r3, r3, r6
 80015d4:	4f24      	ldr	r7, [pc, #144]	; (8001668 <button_managment+0x19c>)
			us_i_target = th_i_target;
 80015d6:	bf2f      	iteee	cs
 80015d8:	802c      	strhcs	r4, [r5, #0]
				us_i_target += dim_step;
 80015da:	b29b      	uxthcc	r3, r3
 80015dc:	802b      	strhcc	r3, [r5, #0]
				i_target = us_i_target;
 80015de:	803b      	strhcc	r3, [r7, #0]
			i_target = th_i_target;
 80015e0:	bf28      	it	cs
 80015e2:	803c      	strhcs	r4, [r7, #0]
 80015e4:	e797      	b.n	8001516 <button_managment+0x4a>
		if((system_flags & THERMAL_CON_FLAG) == 0U)
 80015e6:	4b23      	ldr	r3, [pc, #140]	; (8001674 <button_managment+0x1a8>)
 80015e8:	681b      	ldr	r3, [r3, #0]
 80015ea:	05db      	lsls	r3, r3, #23
 80015ec:	d493      	bmi.n	8001516 <button_managment+0x4a>
		th_i_target = hs_i_target;
 80015ee:	4b20      	ldr	r3, [pc, #128]	; (8001670 <button_managment+0x1a4>)
		us_i_target = hs_i_target;
 80015f0:	802c      	strh	r4, [r5, #0]
		th_i_target = hs_i_target;
 80015f2:	801c      	strh	r4, [r3, #0]
		i_target = hs_i_target;
 80015f4:	4b1c      	ldr	r3, [pc, #112]	; (8001668 <button_managment+0x19c>)
 80015f6:	801c      	strh	r4, [r3, #0]
 80015f8:	e78d      	b.n	8001516 <button_managment+0x4a>
	if(down_button_dbnc == BUTTON_HELD)
 80015fa:	3301      	adds	r3, #1
 80015fc:	d193      	bne.n	8001526 <button_managment+0x5a>
	down_button_hold_count += 1U;
 80015fe:	4c16      	ldr	r4, [pc, #88]	; (8001658 <button_managment+0x18c>)
 8001600:	6823      	ldr	r3, [r4, #0]
 8001602:	3301      	adds	r3, #1
	if(down_button_hold_count == 50U)
 8001604:	2b32      	cmp	r3, #50	; 0x32
	down_button_hold_count += 1U;
 8001606:	6023      	str	r3, [r4, #0]
	if(down_button_hold_count == 50U)
 8001608:	d1a4      	bne.n	8001554 <button_managment+0x88>
	if(us_i_target > (cs_offset + dim_step))
 800160a:	4c14      	ldr	r4, [pc, #80]	; (800165c <button_managment+0x190>)
 800160c:	4b14      	ldr	r3, [pc, #80]	; (8001660 <button_managment+0x194>)
 800160e:	4d15      	ldr	r5, [pc, #84]	; (8001664 <button_managment+0x198>)
 8001610:	6827      	ldr	r7, [r4, #0]
 8001612:	881b      	ldrh	r3, [r3, #0]
 8001614:	f8b5 e000 	ldrh.w	lr, [r5]
 8001618:	4c13      	ldr	r4, [pc, #76]	; (8001668 <button_managment+0x19c>)
 800161a:	443b      	add	r3, r7
 800161c:	459e      	cmp	lr, r3
 800161e:	d909      	bls.n	8001634 <button_managment+0x168>
		   if(us_i_target > i_target)
 8001620:	8823      	ldrh	r3, [r4, #0]
 8001622:	459e      	cmp	lr, r3
		   {us_i_target = i_target;}
 8001624:	bf88      	it	hi
 8001626:	802b      	strhhi	r3, [r5, #0]
			us_i_target -= dim_step;
 8001628:	882b      	ldrh	r3, [r5, #0]
 800162a:	1bdb      	subs	r3, r3, r7
 800162c:	b29b      	uxth	r3, r3
 800162e:	802b      	strh	r3, [r5, #0]
	i_target = us_i_target;
 8001630:	8023      	strh	r3, [r4, #0]
 8001632:	e775      	b.n	8001520 <button_managment+0x54>
	us_i_target = cs_offset+dim_step;
 8001634:	b29b      	uxth	r3, r3
 8001636:	802b      	strh	r3, [r5, #0]
 8001638:	e7fa      	b.n	8001630 <button_managment+0x164>
    	us_i_target = cs_offset+dim_step;
 800163a:	b29b      	uxth	r3, r3
 800163c:	8023      	strh	r3, [r4, #0]
 800163e:	e788      	b.n	8001552 <button_managment+0x86>
 8001640:	200014a4 	.word	0x200014a4
 8001644:	20000e04 	.word	0x20000e04
 8001648:	200014d4 	.word	0x200014d4
 800164c:	20000e1c 	.word	0x20000e1c
 8001650:	48000400 	.word	0x48000400
 8001654:	20000e0c 	.word	0x20000e0c
 8001658:	200014b8 	.word	0x200014b8
 800165c:	200014d8 	.word	0x200014d8
 8001660:	200014c8 	.word	0x200014c8
 8001664:	200014cc 	.word	0x200014cc
 8001668:	20001170 	.word	0x20001170
 800166c:	20000ad4 	.word	0x20000ad4
 8001670:	200014f0 	.word	0x200014f0
 8001674:	20000e20 	.word	0x20000e20

08001678 <thermal_management>:
	if(system_flags & TEMP_INIT_FLAG)
 8001678:	483f      	ldr	r0, [pc, #252]	; (8001778 <thermal_management+0x100>)
 800167a:	6803      	ldr	r3, [r0, #0]
 800167c:	f013 0f10 	tst.w	r3, #16
{
 8001680:	b530      	push	{r4, r5, lr}
 8001682:	4601      	mov	r1, r0
	if(system_flags & TEMP_INIT_FLAG)
 8001684:	d166      	bne.n	8001754 <thermal_management+0xdc>
	if((system_flags & PMIC_ENABLE_FLAG) == 0U)
 8001686:	065a      	lsls	r2, r3, #25
 8001688:	d564      	bpl.n	8001754 <thermal_management+0xdc>
	if(((&ex_temp)->avg) <= SHORT_WIRE_RUN)
 800168a:	4a3c      	ldr	r2, [pc, #240]	; (800177c <thermal_management+0x104>)
 800168c:	f8d2 2320 	ldr.w	r2, [r2, #800]	; 0x320
 8001690:	f5b2 7fc8 	cmp.w	r2, #400	; 0x190
 8001694:	d807      	bhi.n	80016a6 <thermal_management+0x2e>
	wire_error_count+=1U;
 8001696:	4a3a      	ldr	r2, [pc, #232]	; (8001780 <thermal_management+0x108>)
	system_flags |= THERM_WIRE_ERR_FLAG;
 8001698:	f443 6380 	orr.w	r3, r3, #1024	; 0x400
 800169c:	6003      	str	r3, [r0, #0]
	wire_error_count+=1U;
 800169e:	8813      	ldrh	r3, [r2, #0]
 80016a0:	3301      	adds	r3, #1
 80016a2:	8013      	strh	r3, [r2, #0]
	return;
 80016a4:	bd30      	pop	{r4, r5, pc}
	if(((&ex_temp)->avg) >= OPEN_WIRE_RUN)
 80016a6:	f640 14b4 	movw	r4, #2484	; 0x9b4
 80016aa:	42a2      	cmp	r2, r4
 80016ac:	d8f3      	bhi.n	8001696 <thermal_management+0x1e>
	if(((&ex_temp)->avg) <= HOT_TEMP)
 80016ae:	f5b2 7f34 	cmp.w	r2, #720	; 0x2d0
 80016b2:	d9f0      	bls.n	8001696 <thermal_management+0x1e>
	if(((&ex_temp)->avg) >= COLD_TEMP)
 80016b4:	f640 14a5 	movw	r4, #2469	; 0x9a5
 80016b8:	42a2      	cmp	r2, r4
 80016ba:	d8ec      	bhi.n	8001696 <thermal_management+0x1e>
	if((system_flags & THERMAL_CON_FLAG) == 0U)
 80016bc:	05dd      	lsls	r5, r3, #23
 80016be:	d44a      	bmi.n	8001756 <thermal_management+0xde>
		system_flags &= ~(THERMAL_ACTION_FLAG);
 80016c0:	f423 7300 	bic.w	r3, r3, #512	; 0x200
				{system_flags &= ~(THERMAL_CON_FLAG|THERMAL_ACTION_FLAG);}
 80016c4:	600b      	str	r3, [r1, #0]
	if(system_flags & THERMAL_CON_FLAG)
 80016c6:	680b      	ldr	r3, [r1, #0]
 80016c8:	05dc      	lsls	r4, r3, #23
 80016ca:	d543      	bpl.n	8001754 <thermal_management+0xdc>
		if((system_flags & THERMAL_ACTION_FLAG) == 0U)
 80016cc:	0598      	lsls	r0, r3, #22
 80016ce:	d449      	bmi.n	8001764 <thermal_management+0xec>
	    if(((&ex_temp)->avg) < last_temp)
 80016d0:	482c      	ldr	r0, [pc, #176]	; (8001784 <thermal_management+0x10c>)
 80016d2:	8804      	ldrh	r4, [r0, #0]
 80016d4:	42a2      	cmp	r2, r4
 80016d6:	d218      	bcs.n	800170a <thermal_management+0x92>
	    pl = last_temp - ((&ex_temp)->avg);
 80016d8:	1aa4      	subs	r4, r4, r2
 80016da:	4d2b      	ldr	r5, [pc, #172]	; (8001788 <thermal_management+0x110>)
	    if(pl > THERMAL_MAX_DELTA)
 80016dc:	2c32      	cmp	r4, #50	; 0x32
	    pl = last_temp - ((&ex_temp)->avg);
 80016de:	602c      	str	r4, [r5, #0]
	    if(pl > THERMAL_MAX_DELTA)
 80016e0:	d913      	bls.n	800170a <thermal_management+0x92>
	    if(i_target <= 30)
 80016e2:	4d2a      	ldr	r5, [pc, #168]	; (800178c <thermal_management+0x114>)
	    last_temp = ((&ex_temp)->avg);
 80016e4:	8002      	strh	r2, [r0, #0]
	    if(i_target <= 30)
 80016e6:	882c      	ldrh	r4, [r5, #0]
 80016e8:	2c1e      	cmp	r4, #30
	    {i_target = 40U;}
 80016ea:	bf94      	ite	ls
 80016ec:	2428      	movls	r4, #40	; 0x28
	    {i_target -= 25U;}
 80016ee:	3c19      	subhi	r4, #25
 80016f0:	802c      	strh	r4, [r5, #0]
	    if(last_therm_action >= 1000U)
 80016f2:	4d27      	ldr	r5, [pc, #156]	; (8001790 <thermal_management+0x118>)
 80016f4:	682c      	ldr	r4, [r5, #0]
 80016f6:	f5b4 7f7a 	cmp.w	r4, #1000	; 0x3e8
	    {last_therm_action -= 1000U;}
 80016fa:	bf28      	it	cs
 80016fc:	f5a4 747a 	subcs.w	r4, r4, #1000	; 0x3e8
	    system_flags |= THERMAL_ACTION_FLAG;
 8001700:	f443 7300 	orr.w	r3, r3, #512	; 0x200
	    {last_therm_action -= 1000U;}
 8001704:	bf28      	it	cs
 8001706:	602c      	strcs	r4, [r5, #0]
	    system_flags |= THERMAL_ACTION_FLAG;
 8001708:	600b      	str	r3, [r1, #0]
	    if(((&ex_temp)->avg) > last_temp)
 800170a:	8803      	ldrh	r3, [r0, #0]
 800170c:	429a      	cmp	r2, r3
 800170e:	d921      	bls.n	8001754 <thermal_management+0xdc>
	    pl =((&ex_temp)->avg) - last_temp;
 8001710:	1ad3      	subs	r3, r2, r3
 8001712:	4c1d      	ldr	r4, [pc, #116]	; (8001788 <thermal_management+0x110>)
	    if(pl > THERMAL_MAX_DELTA)
 8001714:	2b32      	cmp	r3, #50	; 0x32
	    pl =((&ex_temp)->avg) - last_temp;
 8001716:	6023      	str	r3, [r4, #0]
	    if(pl > THERMAL_MAX_DELTA)
 8001718:	d91c      	bls.n	8001754 <thermal_management+0xdc>
	    i_target += 25U;
 800171a:	4b1c      	ldr	r3, [pc, #112]	; (800178c <thermal_management+0x114>)
	    if(i_target > (hs_i_target))
 800171c:	4d1d      	ldr	r5, [pc, #116]	; (8001794 <thermal_management+0x11c>)
	    i_target += 25U;
 800171e:	881c      	ldrh	r4, [r3, #0]
	    if(i_target > (hs_i_target))
 8001720:	882d      	ldrh	r5, [r5, #0]
	    last_temp = ((&ex_temp)->avg);
 8001722:	8002      	strh	r2, [r0, #0]
	    i_target += 25U;
 8001724:	3419      	adds	r4, #25
 8001726:	b2a4      	uxth	r4, r4
 8001728:	801c      	strh	r4, [r3, #0]
	    if(i_target > (hs_i_target))
 800172a:	42ac      	cmp	r4, r5
	    if(i_target > (us_i_target))
 800172c:	4c1a      	ldr	r4, [pc, #104]	; (8001798 <thermal_management+0x120>)
	    {i_target = hs_i_target;}
 800172e:	bf88      	it	hi
 8001730:	801d      	strhhi	r5, [r3, #0]
	    if(i_target > (us_i_target))
 8001732:	881d      	ldrh	r5, [r3, #0]
 8001734:	8824      	ldrh	r4, [r4, #0]
	    if(last_therm_action >= 1000U)
 8001736:	4a16      	ldr	r2, [pc, #88]	; (8001790 <thermal_management+0x118>)
	    if(i_target > (us_i_target))
 8001738:	42a5      	cmp	r5, r4
	    {i_target = us_i_target;}
 800173a:	bf88      	it	hi
 800173c:	801c      	strhhi	r4, [r3, #0]
	    if(last_therm_action >= 1000U)
 800173e:	6813      	ldr	r3, [r2, #0]
 8001740:	f5b3 7f7a 	cmp.w	r3, #1000	; 0x3e8
	    {last_therm_action -= 1000U;}
 8001744:	bf24      	itt	cs
 8001746:	f5a3 737a 	subcs.w	r3, r3, #1000	; 0x3e8
 800174a:	6013      	strcs	r3, [r2, #0]
	    system_flags |= THERMAL_ACTION_FLAG;
 800174c:	680b      	ldr	r3, [r1, #0]
 800174e:	f443 7300 	orr.w	r3, r3, #512	; 0x200
		{system_flags &= ~(THERMAL_ACTION_FLAG);}
 8001752:	600b      	str	r3, [r1, #0]
 8001754:	bd30      	pop	{r4, r5, pc}
		if(((&ex_temp)->avg) > (FOLDBACK_TEMP + THERMAL_HYS))
 8001756:	f240 30f2 	movw	r0, #1010	; 0x3f2
 800175a:	4282      	cmp	r2, r0
 800175c:	d9b3      	bls.n	80016c6 <thermal_management+0x4e>
				{system_flags &= ~(THERMAL_CON_FLAG|THERMAL_ACTION_FLAG);}
 800175e:	f423 7340 	bic.w	r3, r3, #768	; 0x300
 8001762:	e7af      	b.n	80016c4 <thermal_management+0x4c>
		if((((system_time)->time_nums)[millis]) == last_therm_action)
 8001764:	4a0d      	ldr	r2, [pc, #52]	; (800179c <thermal_management+0x124>)
 8001766:	6812      	ldr	r2, [r2, #0]
 8001768:	6850      	ldr	r0, [r2, #4]
 800176a:	4a09      	ldr	r2, [pc, #36]	; (8001790 <thermal_management+0x118>)
 800176c:	6812      	ldr	r2, [r2, #0]
 800176e:	4290      	cmp	r0, r2
 8001770:	d1f0      	bne.n	8001754 <thermal_management+0xdc>
		{system_flags &= ~(THERMAL_ACTION_FLAG);}
 8001772:	f423 7300 	bic.w	r3, r3, #512	; 0x200
 8001776:	e7ec      	b.n	8001752 <thermal_management+0xda>
 8001778:	20000e20 	.word	0x20000e20
 800177c:	20000e34 	.word	0x20000e34
 8001780:	2000115e 	.word	0x2000115e
 8001784:	200014ec 	.word	0x200014ec
 8001788:	200014b4 	.word	0x200014b4
 800178c:	20001170 	.word	0x20001170
 8001790:	20001160 	.word	0x20001160
 8001794:	20000ad4 	.word	0x20000ad4
 8001798:	200014cc 	.word	0x200014cc
 800179c:	200014a4 	.word	0x200014a4

080017a0 <relay_control>:
{
 80017a0:	f04f 4390 	mov.w	r3, #1207959552	; 0x48000000
{((GPIOA)->ODR) |= RELAY_PIN;}
 80017a4:	695a      	ldr	r2, [r3, #20]
if(on_off)
 80017a6:	b118      	cbz	r0, 80017b0 <relay_control+0x10>
{((GPIOA)->ODR) |= RELAY_PIN;}
 80017a8:	f042 0280 	orr.w	r2, r2, #128	; 0x80
else
{((GPIOA)->ODR) &= ~RELAY_PIN;}
 80017ac:	615a      	str	r2, [r3, #20]
 80017ae:	4770      	bx	lr
 80017b0:	f022 0280 	bic.w	r2, r2, #128	; 0x80
 80017b4:	e7fa      	b.n	80017ac <relay_control+0xc>
	...

080017b8 <system_io_config>:
((RCC)->AHB2ENR) |= (RCC_GPIOB_ENABLE|RCC_GPIOA_ENABLE);
 80017b8:	4a08      	ldr	r2, [pc, #32]	; (80017dc <system_io_config+0x24>)
 80017ba:	6cd3      	ldr	r3, [r2, #76]	; 0x4c
 80017bc:	f043 0303 	orr.w	r3, r3, #3
 80017c0:	64d3      	str	r3, [r2, #76]	; 0x4c
((GPIOA)->MODER) &= (~((IN_MODE)<<(GPIO_7_DSHIFT)));
 80017c2:	f04f 4390 	mov.w	r3, #1207959552	; 0x48000000
relay_control(off);
 80017c6:	2000      	movs	r0, #0
((GPIOA)->MODER) &= (~((IN_MODE)<<(GPIO_7_DSHIFT)));
 80017c8:	681a      	ldr	r2, [r3, #0]
 80017ca:	f422 4240 	bic.w	r2, r2, #49152	; 0xc000
 80017ce:	601a      	str	r2, [r3, #0]
((GPIOA)->MODER) |= (((OUT_MODE)<<(GPIO_7_DSHIFT)));
 80017d0:	681a      	ldr	r2, [r3, #0]
 80017d2:	f442 4280 	orr.w	r2, r2, #16384	; 0x4000
 80017d6:	601a      	str	r2, [r3, #0]
relay_control(off);
 80017d8:	f7ff bfe2 	b.w	80017a0 <relay_control>
 80017dc:	40021000 	.word	0x40021000

080017e0 <pmic_management>:
{
 80017e0:	e92d 4ff8 	stmdb	sp!, {r3, r4, r5, r6, r7, r8, r9, sl, fp, lr}
uint8_t mc = mode_check();
 80017e4:	f000 ff72 	bl	80026cc <mode_check>
if(system_flags & ADC_INIT_FLAG)
 80017e8:	4a4c      	ldr	r2, [pc, #304]	; (800191c <pmic_management+0x13c>)
 80017ea:	6813      	ldr	r3, [r2, #0]
if(system_flags & TEMP_INIT_FLAG)
 80017ec:	f013 0511 	ands.w	r5, r3, #17
 80017f0:	4614      	mov	r4, r2
 80017f2:	f040 8090 	bne.w	8001916 <pmic_management+0x136>
if((system_flags & THERM_WIRE_ERR_FLAG) | (system_flags & POWER_WIRE_ERR_FLAG))
 80017f6:	f413 5fa0 	tst.w	r3, #5120	; 0x1400
 80017fa:	d024      	beq.n	8001846 <pmic_management+0x66>
dac_set(0U);
 80017fc:	4628      	mov	r0, r5
 80017fe:	f7ff fa9b 	bl	8000d38 <dac_set>
lockout_mode();
 8001802:	f000 fee9 	bl	80025d8 <lockout_mode>
relay_control(off);
 8001806:	4628      	mov	r0, r5
 8001808:	f7ff ffca 	bl	80017a0 <relay_control>
if(system_flags & PMIC_ENABLE_FLAG)
 800180c:	6823      	ldr	r3, [r4, #0]
 800180e:	0658      	lsls	r0, r3, #25
{system_flags &= ~(PMIC_ENABLE_FLAG);}
 8001810:	bf44      	itt	mi
 8001812:	f023 0340 	bicmi.w	r3, r3, #64	; 0x40
 8001816:	6023      	strmi	r3, [r4, #0]
if(wire_error_count < 10U)
 8001818:	4b41      	ldr	r3, [pc, #260]	; (8001920 <pmic_management+0x140>)
 800181a:	881b      	ldrh	r3, [r3, #0]
 800181c:	2b09      	cmp	r3, #9
 800181e:	d87a      	bhi.n	8001916 <pmic_management+0x136>
check_delay+=1U;
 8001820:	4a40      	ldr	r2, [pc, #256]	; (8001924 <pmic_management+0x144>)
if(check_delay >= WIRE_ERR_DELAY)
 8001822:	4941      	ldr	r1, [pc, #260]	; (8001928 <pmic_management+0x148>)
check_delay+=1U;
 8001824:	6813      	ldr	r3, [r2, #0]
 8001826:	3301      	adds	r3, #1
if(check_delay >= WIRE_ERR_DELAY)
 8001828:	428b      	cmp	r3, r1
check_delay+=1U;
 800182a:	6013      	str	r3, [r2, #0]
if(check_delay >= WIRE_ERR_DELAY)
 800182c:	d973      	bls.n	8001916 <pmic_management+0x136>
system_flags &=	~(THERM_WIRE_ERR_FLAG|POWER_WIRE_ERR_FLAG);
 800182e:	6823      	ldr	r3, [r4, #0]
start_up_flags &= 0U;
 8001830:	483e      	ldr	r0, [pc, #248]	; (800192c <pmic_management+0x14c>)
system_flags &=	~(THERM_WIRE_ERR_FLAG|POWER_WIRE_ERR_FLAG);
 8001832:	f423 53a0 	bic.w	r3, r3, #5120	; 0x1400
start_up_flags &= 0U;
 8001836:	2100      	movs	r1, #0
system_flags |= START_UP_FLAG;
 8001838:	f443 6300 	orr.w	r3, r3, #2048	; 0x800
start_up_flags &= 0U;
 800183c:	6001      	str	r1, [r0, #0]
system_flags |= START_UP_FLAG;
 800183e:	6023      	str	r3, [r4, #0]
check_delay = 0U;
 8001840:	6011      	str	r1, [r2, #0]
 8001842:	e8bd 8ff8 	ldmia.w	sp!, {r3, r4, r5, r6, r7, r8, r9, sl, fp, pc}
if(system_flags & PMIC_ENABLE_FLAG)
 8001846:	0659      	lsls	r1, r3, #25
 8001848:	d55c      	bpl.n	8001904 <pmic_management+0x124>
if((system_flags & PMIC_ACTION_FLAG) == 0U)
 800184a:	f013 0f80 	tst.w	r3, #128	; 0x80
 800184e:	f8df 80ec 	ldr.w	r8, [pc, #236]	; 800193c <pmic_management+0x15c>
 8001852:	4f37      	ldr	r7, [pc, #220]	; (8001930 <pmic_management+0x150>)
 8001854:	d14b      	bne.n	80018ee <pmic_management+0x10e>
if(((&ov_channel)->avg) < (v_ovp - VOLTAGE_HYS))
 8001856:	4e37      	ldr	r6, [pc, #220]	; (8001934 <pmic_management+0x154>)
 8001858:	4d37      	ldr	r5, [pc, #220]	; (8001938 <pmic_management+0x158>)
 800185a:	8833      	ldrh	r3, [r6, #0]
 800185c:	f8d5 2320 	ldr.w	r2, [r5, #800]	; 0x320
 8001860:	f8df a0dc 	ldr.w	sl, [pc, #220]	; 8001940 <pmic_management+0x160>
 8001864:	f8df b0dc 	ldr.w	fp, [pc, #220]	; 8001944 <pmic_management+0x164>
 8001868:	f8df 90dc 	ldr.w	r9, [pc, #220]	; 8001948 <pmic_management+0x168>
 800186c:	3b0a      	subs	r3, #10
 800186e:	429a      	cmp	r2, r3
 8001870:	d215      	bcs.n	800189e <pmic_management+0xbe>
if((((&cs_channel)->avg)-cs_offset) < (i_target- CURRENT_HYS))
 8001872:	f8da 3320 	ldr.w	r3, [sl, #800]	; 0x320
 8001876:	f8bb 2000 	ldrh.w	r2, [fp]
 800187a:	1a9a      	subs	r2, r3, r2
 800187c:	f8b9 3000 	ldrh.w	r3, [r9]
 8001880:	3b05      	subs	r3, #5
 8001882:	429a      	cmp	r2, r3
 8001884:	d202      	bcs.n	800188c <pmic_management+0xac>
{duty_cycle_increment(1U);}
 8001886:	2001      	movs	r0, #1
 8001888:	f000 ff26 	bl	80026d8 <duty_cycle_increment>
if(((&cs_channel)->avg) < cs_offset)
 800188c:	f8bb 3000 	ldrh.w	r3, [fp]
 8001890:	f8da 2320 	ldr.w	r2, [sl, #800]	; 0x320
 8001894:	429a      	cmp	r2, r3
 8001896:	d202      	bcs.n	800189e <pmic_management+0xbe>
{duty_cycle_increment(1U);}
 8001898:	2001      	movs	r0, #1
 800189a:	f000 ff1d 	bl	80026d8 <duty_cycle_increment>
if(((&ov_channel)->avg) > (v_ovp+VOLTAGE_HYS))
 800189e:	8833      	ldrh	r3, [r6, #0]
 80018a0:	f8d5 2320 	ldr.w	r2, [r5, #800]	; 0x320
 80018a4:	330a      	adds	r3, #10
 80018a6:	429a      	cmp	r2, r3
 80018a8:	d902      	bls.n	80018b0 <pmic_management+0xd0>
{duty_cycle_decrement(1U);}
 80018aa:	2001      	movs	r0, #1
 80018ac:	f000 ff38 	bl	8002720 <duty_cycle_decrement>
if((((&cs_channel)->avg)-cs_offset) > (i_target+CURRENT_HYS))
 80018b0:	f8bb 3000 	ldrh.w	r3, [fp]
 80018b4:	f8da 2320 	ldr.w	r2, [sl, #800]	; 0x320
 80018b8:	1ad2      	subs	r2, r2, r3
 80018ba:	f8b9 3000 	ldrh.w	r3, [r9]
 80018be:	3305      	adds	r3, #5
 80018c0:	429a      	cmp	r2, r3
 80018c2:	d902      	bls.n	80018ca <pmic_management+0xea>
{duty_cycle_decrement(1U);}
 80018c4:	2001      	movs	r0, #1
 80018c6:	f000 ff2b 	bl	8002720 <duty_cycle_decrement>
system_flags |= PMIC_ACTION_FLAG;
 80018ca:	6823      	ldr	r3, [r4, #0]
 80018cc:	f043 0380 	orr.w	r3, r3, #128	; 0x80
 80018d0:	6023      	str	r3, [r4, #0]
last_pmic_action = (((system_time)->time_nums)[millis])+PMIC_DELAY;
 80018d2:	f8d8 3000 	ldr.w	r3, [r8]
 80018d6:	685b      	ldr	r3, [r3, #4]
 80018d8:	f503 72fa 	add.w	r2, r3, #500	; 0x1f4
if(last_pmic_action >= 1000U)
 80018dc:	f5b2 7f7a 	cmp.w	r2, #1000	; 0x3e8
{last_pmic_action -= 1000U;}
 80018e0:	bf2a      	itet	cs
 80018e2:	f5a3 73fa 	subcs.w	r3, r3, #500	; 0x1f4
last_pmic_action = (((system_time)->time_nums)[millis])+PMIC_DELAY;
 80018e6:	603a      	strcc	r2, [r7, #0]
{last_pmic_action -= 1000U;}
 80018e8:	603b      	strcs	r3, [r7, #0]
 80018ea:	e8bd 8ff8 	ldmia.w	sp!, {r3, r4, r5, r6, r7, r8, r9, sl, fp, pc}
if((((system_time)->time_nums)[millis]) == last_pmic_action)
 80018ee:	f8d8 1000 	ldr.w	r1, [r8]
 80018f2:	6848      	ldr	r0, [r1, #4]
 80018f4:	6839      	ldr	r1, [r7, #0]
 80018f6:	4288      	cmp	r0, r1
 80018f8:	d10d      	bne.n	8001916 <pmic_management+0x136>
{system_flags &= ~(PMIC_ACTION_FLAG);}
 80018fa:	f023 0380 	bic.w	r3, r3, #128	; 0x80
 80018fe:	6013      	str	r3, [r2, #0]
 8001900:	e8bd 8ff8 	ldmia.w	sp!, {r3, r4, r5, r6, r7, r8, r9, sl, fp, pc}
system_flags &= ~(PMIC_ACTION_FLAG);
 8001904:	f023 0380 	bic.w	r3, r3, #128	; 0x80
if(mc == LOCKOUT_MODE)
 8001908:	2801      	cmp	r0, #1
system_flags &= ~(PMIC_ACTION_FLAG);
 800190a:	6013      	str	r3, [r2, #0]
if(mc == LOCKOUT_MODE)
 800190c:	d003      	beq.n	8001916 <pmic_management+0x136>
}
 800190e:	e8bd 4ff8 	ldmia.w	sp!, {r3, r4, r5, r6, r7, r8, r9, sl, fp, lr}
{lockout_mode();}
 8001912:	f000 be61 	b.w	80025d8 <lockout_mode>
 8001916:	e8bd 8ff8 	ldmia.w	sp!, {r3, r4, r5, r6, r7, r8, r9, sl, fp, pc}
 800191a:	bf00      	nop
 800191c:	20000e20 	.word	0x20000e20
 8001920:	2000115e 	.word	0x2000115e
 8001924:	200014d0 	.word	0x200014d0
 8001928:	00030d3f 	.word	0x00030d3f
 800192c:	200014b0 	.word	0x200014b0
 8001930:	20001164 	.word	0x20001164
 8001934:	20000e32 	.word	0x20000e32
 8001938:	20000480 	.word	0x20000480
 800193c:	200014a4 	.word	0x200014a4
 8001940:	20000adc 	.word	0x20000adc
 8001944:	200014c8 	.word	0x200014c8
 8001948:	20001170 	.word	0x20001170

0800194c <convert_to_ascii>:
for(sysi=0U; sysi < 10U; sysi++)
{(((&num_hold)->string)[sysi]) = (((num)->ascii)[sysi]);}
}

void convert_to_ascii(uint32_t num)
{
 800194c:	b5f0      	push	{r4, r5, r6, r7, lr}
uint8_t temp;
uint32_t copy = num;
uint32_t div = 1000000000U;
 800194e:	4a19      	ldr	r2, [pc, #100]	; (80019b4 <convert_to_ascii+0x68>)
 8001950:	4c19      	ldr	r4, [pc, #100]	; (80019b8 <convert_to_ascii+0x6c>)
 8001952:	4e1a      	ldr	r6, [pc, #104]	; (80019bc <convert_to_ascii+0x70>)
uint32_t copy = num;
 8001954:	4601      	mov	r1, r0

for(sysi=0U; sysi < 10U; sysi++)
 8001956:	2300      	movs	r3, #0
temp = copy / div;
temp += 48U;
((&num_1)->ascii)[sysi] = temp;
}
else
{((&num_1)->ascii)[sysi] = 48U;}
 8001958:	2730      	movs	r7, #48	; 0x30

temp = copy / div;
copy -= (temp*div);
div /= 10U;
 800195a:	f04f 0e0a 	mov.w	lr, #10
for(sysi=0U; sysi < 10U; sysi++)
 800195e:	2b0a      	cmp	r3, #10
 8001960:	d10c      	bne.n	800197c <convert_to_ascii+0x30>
}

(&num_1)-> bin = num;

(&num_hold)->length = 10U;
 8001962:	4917      	ldr	r1, [pc, #92]	; (80019c0 <convert_to_ascii+0x74>)
(&num_1)-> bin = num;
 8001964:	4a17      	ldr	r2, [pc, #92]	; (80019c4 <convert_to_ascii+0x78>)
(&num_hold)->length = 10U;
 8001966:	700b      	strb	r3, [r1, #0]

for(sysi=0U; sysi < 10U; sysi++)
 8001968:	2300      	movs	r3, #0
(&num_1)-> bin = num;
 800196a:	6010      	str	r0, [r2, #0]
for(sysi=0U; sysi < 10U; sysi++)
 800196c:	7033      	strb	r3, [r6, #0]
 800196e:	461c      	mov	r4, r3
 8001970:	b2d8      	uxtb	r0, r3
 8001972:	280a      	cmp	r0, #10
 8001974:	d116      	bne.n	80019a4 <convert_to_ascii+0x58>
 8001976:	b104      	cbz	r4, 800197a <convert_to_ascii+0x2e>
 8001978:	7030      	strb	r0, [r6, #0]
 800197a:	bdf0      	pop	{r4, r5, r6, r7, pc}
if(copy > div)
 800197c:	4291      	cmp	r1, r2
 800197e:	fbb1 f5f2 	udiv	r5, r1, r2
 8001982:	f103 0301 	add.w	r3, r3, #1
temp += 48U;
 8001986:	bf88      	it	hi
 8001988:	f105 0c30 	addhi.w	ip, r5, #48	; 0x30
copy -= (temp*div);
 800198c:	b2ed      	uxtb	r5, r5
((&num_1)->ascii)[sysi] = temp;
 800198e:	bf8c      	ite	hi
 8001990:	f884 c000 	strbhi.w	ip, [r4]
{((&num_1)->ascii)[sysi] = 48U;}
 8001994:	7027      	strbls	r7, [r4, #0]
copy -= (temp*div);
 8001996:	fb02 1115 	mls	r1, r2, r5, r1
 800199a:	b2db      	uxtb	r3, r3
div /= 10U;
 800199c:	fbb2 f2fe 	udiv	r2, r2, lr
 80019a0:	3401      	adds	r4, #1
 80019a2:	e7dc      	b.n	800195e <convert_to_ascii+0x12>
{(((&num_hold)->string)[sysi]) = (((&num_1)->ascii)[sysi]);}
 80019a4:	18d4      	adds	r4, r2, r3
 80019a6:	18c8      	adds	r0, r1, r3
 80019a8:	7924      	ldrb	r4, [r4, #4]
 80019aa:	7044      	strb	r4, [r0, #1]
 80019ac:	3301      	adds	r3, #1
 80019ae:	2401      	movs	r4, #1
 80019b0:	e7de      	b.n	8001970 <convert_to_ascii+0x24>
 80019b2:	bf00      	nop
 80019b4:	3b9aca00 	.word	0x3b9aca00
 80019b8:	2000031c 	.word	0x2000031c
 80019bc:	20000e18 	.word	0x20000e18
 80019c0:	200014f2 	.word	0x200014f2
 80019c4:	20000318 	.word	0x20000318

080019c8 <string_compare>:

}


uint8_t string_compare(STRING* in1, STRING* in2)
{
 80019c8:	b5f0      	push	{r4, r5, r6, r7, lr}
uint8_t match = 1U;
if(((in1)->length) == ((in2)->length))
 80019ca:	780b      	ldrb	r3, [r1, #0]
 80019cc:	7807      	ldrb	r7, [r0, #0]
 80019ce:	42bb      	cmp	r3, r7
 80019d0:	f04f 0300 	mov.w	r3, #0
 80019d4:	d109      	bne.n	80019ea <string_compare+0x22>
{
for(sysi=0U; sysi < ((in1)->length); sysi++)
 80019d6:	4c0b      	ldr	r4, [pc, #44]	; (8001a04 <string_compare+0x3c>)
 80019d8:	461a      	mov	r2, r3
 80019da:	7023      	strb	r3, [r4, #0]
 80019dc:	461e      	mov	r6, r3
uint8_t match = 1U;
 80019de:	2301      	movs	r3, #1
 80019e0:	b2d5      	uxtb	r5, r2
for(sysi=0U; sysi < ((in1)->length); sysi++)
 80019e2:	42af      	cmp	r7, r5
 80019e4:	d803      	bhi.n	80019ee <string_compare+0x26>
 80019e6:	b106      	cbz	r6, 80019ea <string_compare+0x22>
 80019e8:	7025      	strb	r5, [r4, #0]
else
{return 0U;}



}
 80019ea:	4618      	mov	r0, r3
 80019ec:	bdf0      	pop	{r4, r5, r6, r7, pc}
if((((in1)->string)[sysi]) != (((in2)->string)[sysi]))
 80019ee:	1886      	adds	r6, r0, r2
 80019f0:	188d      	adds	r5, r1, r2
 80019f2:	7876      	ldrb	r6, [r6, #1]
 80019f4:	786d      	ldrb	r5, [r5, #1]
 80019f6:	3201      	adds	r2, #1
{match = 0U;}
 80019f8:	42ae      	cmp	r6, r5
 80019fa:	bf18      	it	ne
 80019fc:	2300      	movne	r3, #0
 80019fe:	2601      	movs	r6, #1
 8001a00:	e7ee      	b.n	80019e0 <string_compare+0x18>
 8001a02:	bf00      	nop
 8001a04:	20000e18 	.word	0x20000e18

08001a08 <avg_samp_bank>:

void avg_samp_bank(SAMP_BANK* in)
{
	avg_dummy = 0U;
 8001a08:	490d      	ldr	r1, [pc, #52]	; (8001a40 <avg_samp_bank+0x38>)
 8001a0a:	2300      	movs	r3, #0
{
 8001a0c:	b530      	push	{r4, r5, lr}
	avg_dummy = 0U;
 8001a0e:	461a      	mov	r2, r3
 8001a10:	600b      	str	r3, [r1, #0]
 8001a12:	4604      	mov	r4, r0
	for(sysi=0U; sysi<199U; sysi++)
 8001a14:	3201      	adds	r2, #1
	{
	((in)->samples)[sysi] = ((in)->samples)[sysi+1U];
 8001a16:	6865      	ldr	r5, [r4, #4]
 8001a18:	f844 5b04 	str.w	r5, [r4], #4
	for(sysi=0U; sysi<199U; sysi++)
 8001a1c:	b2d2      	uxtb	r2, r2
 8001a1e:	2ac7      	cmp	r2, #199	; 0xc7
	avg_dummy += ((in)->samples)[sysi];
 8001a20:	442b      	add	r3, r5
	for(sysi=0U; sysi<199U; sysi++)
 8001a22:	d1f7      	bne.n	8001a14 <avg_samp_bank+0xc>
 8001a24:	4c07      	ldr	r4, [pc, #28]	; (8001a44 <avg_samp_bank+0x3c>)
 8001a26:	7022      	strb	r2, [r4, #0]
	}
	avg_dummy += ((in)->new_samp);
 8001a28:	f8d0 2324 	ldr.w	r2, [r0, #804]	; 0x324
	((in)->samples)[199U] = ((in)->new_samp);
 8001a2c:	f8c0 231c 	str.w	r2, [r0, #796]	; 0x31c
	avg_dummy += ((in)->new_samp);
 8001a30:	4413      	add	r3, r2
 8001a32:	600b      	str	r3, [r1, #0]
	((in)->avg) = (avg_dummy/200U);
 8001a34:	22c8      	movs	r2, #200	; 0xc8
 8001a36:	fbb3 f3f2 	udiv	r3, r3, r2
 8001a3a:	f8c0 3320 	str.w	r3, [r0, #800]	; 0x320
 8001a3e:	bd30      	pop	{r4, r5, pc}
 8001a40:	200014ac 	.word	0x200014ac
 8001a44:	20000e18 	.word	0x20000e18

08001a48 <adc_management>:
{
 8001a48:	b538      	push	{r3, r4, r5, lr}
if(system_flags & AVG_BANKS_FLAG)
 8001a4a:	4c2f      	ldr	r4, [pc, #188]	; (8001b08 <adc_management+0xc0>)
 8001a4c:	6823      	ldr	r3, [r4, #0]
 8001a4e:	079a      	lsls	r2, r3, #30
 8001a50:	d538      	bpl.n	8001ac4 <adc_management+0x7c>
	avg_samp_bank(&cs_channel);
 8001a52:	482e      	ldr	r0, [pc, #184]	; (8001b0c <adc_management+0xc4>)
 8001a54:	f7ff ffd8 	bl	8001a08 <avg_samp_bank>
	avg_samp_bank(&iv_channel);
 8001a58:	482d      	ldr	r0, [pc, #180]	; (8001b10 <adc_management+0xc8>)
 8001a5a:	f7ff ffd5 	bl	8001a08 <avg_samp_bank>
	avg_samp_bank(&ov_channel);
 8001a5e:	482d      	ldr	r0, [pc, #180]	; (8001b14 <adc_management+0xcc>)
 8001a60:	f7ff ffd2 	bl	8001a08 <avg_samp_bank>
	system_flags &= ~(ADC_CONV_FLAG);
 8001a64:	6823      	ldr	r3, [r4, #0]
 8001a66:	f023 0306 	bic.w	r3, r3, #6
	{system_flags &= ~(ADC_CONV_FLAG);}
 8001a6a:	6023      	str	r3, [r4, #0]
if((system_flags & START_UP_FLAG) == 0U)
 8001a6c:	6820      	ldr	r0, [r4, #0]
 8001a6e:	f410 6500 	ands.w	r5, r0, #2048	; 0x800
 8001a72:	d119      	bne.n	8001aa8 <adc_management+0x60>
if(((((&cs_channel)->avg)-cs_offset) > i_target - CURRENT_HYS))
 8001a74:	4b28      	ldr	r3, [pc, #160]	; (8001b18 <adc_management+0xd0>)
 8001a76:	4a25      	ldr	r2, [pc, #148]	; (8001b0c <adc_management+0xc4>)
 8001a78:	881b      	ldrh	r3, [r3, #0]
 8001a7a:	f8d2 2320 	ldr.w	r2, [r2, #800]	; 0x320
 8001a7e:	1ad2      	subs	r2, r2, r3
 8001a80:	4b26      	ldr	r3, [pc, #152]	; (8001b1c <adc_management+0xd4>)
 8001a82:	881b      	ldrh	r3, [r3, #0]
 8001a84:	3b05      	subs	r3, #5
 8001a86:	429a      	cmp	r2, r3
 8001a88:	d90e      	bls.n	8001aa8 <adc_management+0x60>
if((((&ov_channel)->new_samp) < EXP_VOLTAGE))
 8001a8a:	4b22      	ldr	r3, [pc, #136]	; (8001b14 <adc_management+0xcc>)
 8001a8c:	f8d3 3324 	ldr.w	r3, [r3, #804]	; 0x324
 8001a90:	f5b3 7f7a 	cmp.w	r3, #1000	; 0x3e8
 8001a94:	d208      	bcs.n	8001aa8 <adc_management+0x60>
lockout_mode();
 8001a96:	f000 fd9f 	bl	80025d8 <lockout_mode>
relay_control(off);
 8001a9a:	4628      	mov	r0, r5
 8001a9c:	f7ff fe80 	bl	80017a0 <relay_control>
system_flags |= POWER_WIRE_ERR_FLAG;
 8001aa0:	6823      	ldr	r3, [r4, #0]
 8001aa2:	f443 5380 	orr.w	r3, r3, #4096	; 0x1000
 8001aa6:	6023      	str	r3, [r4, #0]
if(system_flags & AVG_TEMP_FLAG)
 8001aa8:	6823      	ldr	r3, [r4, #0]
 8001aaa:	071b      	lsls	r3, r3, #28
 8001aac:	d51c      	bpl.n	8001ae8 <adc_management+0xa0>
avg_samp_bank(&ex_temp);
 8001aae:	481c      	ldr	r0, [pc, #112]	; (8001b20 <adc_management+0xd8>)
 8001ab0:	f7ff ffaa 	bl	8001a08 <avg_samp_bank>
avg_samp_bank(&in_temp);
 8001ab4:	481b      	ldr	r0, [pc, #108]	; (8001b24 <adc_management+0xdc>)
 8001ab6:	f7ff ffa7 	bl	8001a08 <avg_samp_bank>
system_flags &= ~(AVG_TEMP_FLAG);
 8001aba:	6823      	ldr	r3, [r4, #0]
 8001abc:	f023 0308 	bic.w	r3, r3, #8
last_tsamp = (((system_time)->time_nums)[millis]);
 8001ac0:	6023      	str	r3, [r4, #0]
 8001ac2:	bd38      	pop	{r3, r4, r5, pc}
	if((system_flags & ADC_CONV_FLAG) == 0U)
 8001ac4:	f013 0f04 	tst.w	r3, #4
 8001ac8:	4a17      	ldr	r2, [pc, #92]	; (8001b28 <adc_management+0xe0>)
 8001aca:	d107      	bne.n	8001adc <adc_management+0x94>
	adc_conversion_channel = 1U;
 8001acc:	2301      	movs	r3, #1
 8001ace:	6013      	str	r3, [r2, #0]
	adc1_regular_conversions();
 8001ad0:	f7ff f8bc 	bl	8000c4c <adc1_regular_conversions>
	system_flags |= ADC_CONV_FLAG;
 8001ad4:	6823      	ldr	r3, [r4, #0]
 8001ad6:	f043 0304 	orr.w	r3, r3, #4
 8001ada:	e7c6      	b.n	8001a6a <adc_management+0x22>
	if(adc_conversion_channel == 4U)
 8001adc:	6812      	ldr	r2, [r2, #0]
 8001ade:	2a04      	cmp	r2, #4
 8001ae0:	d1c4      	bne.n	8001a6c <adc_management+0x24>
	{system_flags &= ~(ADC_CONV_FLAG);}
 8001ae2:	f023 0304 	bic.w	r3, r3, #4
 8001ae6:	e7c0      	b.n	8001a6a <adc_management+0x22>
if((((system_time)->time_nums)[millis]) != last_tsamp)
 8001ae8:	4d10      	ldr	r5, [pc, #64]	; (8001b2c <adc_management+0xe4>)
 8001aea:	4c11      	ldr	r4, [pc, #68]	; (8001b30 <adc_management+0xe8>)
 8001aec:	682b      	ldr	r3, [r5, #0]
 8001aee:	685a      	ldr	r2, [r3, #4]
 8001af0:	6823      	ldr	r3, [r4, #0]
 8001af2:	429a      	cmp	r2, r3
 8001af4:	d0e5      	beq.n	8001ac2 <adc_management+0x7a>
inj_conversion_channel = 1U;
 8001af6:	4b0f      	ldr	r3, [pc, #60]	; (8001b34 <adc_management+0xec>)
 8001af8:	2201      	movs	r2, #1
 8001afa:	601a      	str	r2, [r3, #0]
adc1_inject_conversions();
 8001afc:	f7ff f8b6 	bl	8000c6c <adc1_inject_conversions>
last_tsamp = (((system_time)->time_nums)[millis]);
 8001b00:	682b      	ldr	r3, [r5, #0]
 8001b02:	685b      	ldr	r3, [r3, #4]
 8001b04:	e7dc      	b.n	8001ac0 <adc_management+0x78>
 8001b06:	bf00      	nop
 8001b08:	20000e20 	.word	0x20000e20
 8001b0c:	20000adc 	.word	0x20000adc
 8001b10:	20001174 	.word	0x20001174
 8001b14:	20000480 	.word	0x20000480
 8001b18:	200014c8 	.word	0x200014c8
 8001b1c:	20001170 	.word	0x20001170
 8001b20:	20000e34 	.word	0x20000e34
 8001b24:	200007ac 	.word	0x200007ac
 8001b28:	20000e10 	.word	0x20000e10
 8001b2c:	200014a4 	.word	0x200014a4
 8001b30:	20000ad8 	.word	0x20000ad8
 8001b34:	200014a0 	.word	0x200014a0

08001b38 <raise_avg_flag>:
}


void raise_avg_flag(void)
{
system_flags |= AVG_BANKS_FLAG;
 8001b38:	4a04      	ldr	r2, [pc, #16]	; (8001b4c <raise_avg_flag+0x14>)
 8001b3a:	6813      	ldr	r3, [r2, #0]
 8001b3c:	f043 0302 	orr.w	r3, r3, #2
 8001b40:	6013      	str	r3, [r2, #0]
avg_count++;
 8001b42:	4a03      	ldr	r2, [pc, #12]	; (8001b50 <raise_avg_flag+0x18>)
 8001b44:	6813      	ldr	r3, [r2, #0]
 8001b46:	3301      	adds	r3, #1
 8001b48:	6013      	str	r3, [r2, #0]
 8001b4a:	4770      	bx	lr
 8001b4c:	20000e20 	.word	0x20000e20
 8001b50:	200014e8 	.word	0x200014e8

08001b54 <raise_temp_flag>:
//((ADC1)->IER) &= ~(EOCI|EOSI);
}

void raise_temp_flag(void)
{
system_flags |= AVG_TEMP_FLAG;
 8001b54:	4a04      	ldr	r2, [pc, #16]	; (8001b68 <raise_temp_flag+0x14>)
 8001b56:	6813      	ldr	r3, [r2, #0]
 8001b58:	f043 0308 	orr.w	r3, r3, #8
 8001b5c:	6013      	str	r3, [r2, #0]
avg_count++;
 8001b5e:	4a03      	ldr	r2, [pc, #12]	; (8001b6c <raise_temp_flag+0x18>)
 8001b60:	6813      	ldr	r3, [r2, #0]
 8001b62:	3301      	adds	r3, #1
 8001b64:	6013      	str	r3, [r2, #0]
 8001b66:	4770      	bx	lr
 8001b68:	20000e20 	.word	0x20000e20
 8001b6c:	200014e8 	.word	0x200014e8

08001b70 <add_sample>:
}


void add_sample(uint32_t num, uint8_t inj)
{
conversion_count++;
 8001b70:	4a2c      	ldr	r2, [pc, #176]	; (8001c24 <add_sample+0xb4>)
 8001b72:	6813      	ldr	r3, [r2, #0]
 8001b74:	3301      	adds	r3, #1
{
 8001b76:	b510      	push	{r4, lr}
conversion_count++;
 8001b78:	6013      	str	r3, [r2, #0]


if(inj == 0U)
 8001b7a:	2900      	cmp	r1, #0
 8001b7c:	d13b      	bne.n	8001bf6 <add_sample+0x86>
{
switch(adc_conversion_channel)
 8001b7e:	4c2a      	ldr	r4, [pc, #168]	; (8001c28 <add_sample+0xb8>)
 8001b80:	6823      	ldr	r3, [r4, #0]
 8001b82:	2b02      	cmp	r3, #2
 8001b84:	d02b      	beq.n	8001bde <add_sample+0x6e>
 8001b86:	2b03      	cmp	r3, #3
 8001b88:	d02f      	beq.n	8001bea <add_sample+0x7a>
 8001b8a:	2b01      	cmp	r3, #1
 8001b8c:	d126      	bne.n	8001bdc <add_sample+0x6c>
{
case 1U:
cs_sample_count++;
 8001b8e:	4927      	ldr	r1, [pc, #156]	; (8001c2c <add_sample+0xbc>)
 8001b90:	680a      	ldr	r2, [r1, #0]
 8001b92:	3201      	adds	r2, #1
 8001b94:	600a      	str	r2, [r1, #0]
((&cs_channel)->new_samp) = num;
 8001b96:	4a26      	ldr	r2, [pc, #152]	; (8001c30 <add_sample+0xc0>)
ov_sample_count++;
((&ov_channel)->new_samp) = num;
break;
case 3U:
iv_sample_count++;
((&iv_channel)->new_samp) = num;
 8001b98:	f8c2 0324 	str.w	r0, [r2, #804]	; 0x324
break;
default: return;
}
adc_conversion_channel++;
 8001b9c:	3301      	adds	r3, #1
 8001b9e:	6023      	str	r3, [r4, #0]
}

inj_conversion_channel++;
}

if((ex_sample_count > 100U) && (in_sample_count > 100U))
 8001ba0:	4b24      	ldr	r3, [pc, #144]	; (8001c34 <add_sample+0xc4>)
 8001ba2:	681b      	ldr	r3, [r3, #0]
 8001ba4:	2b64      	cmp	r3, #100	; 0x64
 8001ba6:	d908      	bls.n	8001bba <add_sample+0x4a>
 8001ba8:	4b23      	ldr	r3, [pc, #140]	; (8001c38 <add_sample+0xc8>)
 8001baa:	681b      	ldr	r3, [r3, #0]
 8001bac:	2b64      	cmp	r3, #100	; 0x64
{system_flags &= ~(TEMP_INIT_FLAG);}
 8001bae:	bf81      	itttt	hi
 8001bb0:	4a22      	ldrhi	r2, [pc, #136]	; (8001c3c <add_sample+0xcc>)
 8001bb2:	6813      	ldrhi	r3, [r2, #0]
 8001bb4:	f023 0310 	bichi.w	r3, r3, #16
 8001bb8:	6013      	strhi	r3, [r2, #0]


if((cs_sample_count > 100U) && (ov_sample_count > 100U) && (iv_sample_count > 100U))
 8001bba:	4b1c      	ldr	r3, [pc, #112]	; (8001c2c <add_sample+0xbc>)
 8001bbc:	681b      	ldr	r3, [r3, #0]
 8001bbe:	2b64      	cmp	r3, #100	; 0x64
 8001bc0:	d90c      	bls.n	8001bdc <add_sample+0x6c>
 8001bc2:	4b1f      	ldr	r3, [pc, #124]	; (8001c40 <add_sample+0xd0>)
 8001bc4:	681b      	ldr	r3, [r3, #0]
 8001bc6:	2b64      	cmp	r3, #100	; 0x64
 8001bc8:	d908      	bls.n	8001bdc <add_sample+0x6c>
 8001bca:	4b1e      	ldr	r3, [pc, #120]	; (8001c44 <add_sample+0xd4>)
 8001bcc:	681b      	ldr	r3, [r3, #0]
 8001bce:	2b64      	cmp	r3, #100	; 0x64
{system_flags &= ~(ADC_INIT_FLAG);}
 8001bd0:	bf81      	itttt	hi
 8001bd2:	4a1a      	ldrhi	r2, [pc, #104]	; (8001c3c <add_sample+0xcc>)
 8001bd4:	6813      	ldrhi	r3, [r2, #0]
 8001bd6:	f023 0301 	bichi.w	r3, r3, #1
 8001bda:	6013      	strhi	r3, [r2, #0]
 8001bdc:	bd10      	pop	{r4, pc}
ov_sample_count++;
 8001bde:	4918      	ldr	r1, [pc, #96]	; (8001c40 <add_sample+0xd0>)
 8001be0:	680a      	ldr	r2, [r1, #0]
 8001be2:	3201      	adds	r2, #1
 8001be4:	600a      	str	r2, [r1, #0]
((&ov_channel)->new_samp) = num;
 8001be6:	4a18      	ldr	r2, [pc, #96]	; (8001c48 <add_sample+0xd8>)
 8001be8:	e7d6      	b.n	8001b98 <add_sample+0x28>
iv_sample_count++;
 8001bea:	4916      	ldr	r1, [pc, #88]	; (8001c44 <add_sample+0xd4>)
 8001bec:	680a      	ldr	r2, [r1, #0]
 8001bee:	3201      	adds	r2, #1
 8001bf0:	600a      	str	r2, [r1, #0]
((&iv_channel)->new_samp) = num;
 8001bf2:	4a16      	ldr	r2, [pc, #88]	; (8001c4c <add_sample+0xdc>)
 8001bf4:	e7d0      	b.n	8001b98 <add_sample+0x28>
switch(inj_conversion_channel)
 8001bf6:	4a16      	ldr	r2, [pc, #88]	; (8001c50 <add_sample+0xe0>)
 8001bf8:	6813      	ldr	r3, [r2, #0]
 8001bfa:	2b01      	cmp	r3, #1
 8001bfc:	d002      	beq.n	8001c04 <add_sample+0x94>
 8001bfe:	2b02      	cmp	r3, #2
 8001c00:	d00a      	beq.n	8001c18 <add_sample+0xa8>
 8001c02:	bd10      	pop	{r4, pc}
ex_sample_count++;
 8001c04:	4c0b      	ldr	r4, [pc, #44]	; (8001c34 <add_sample+0xc4>)
 8001c06:	6821      	ldr	r1, [r4, #0]
 8001c08:	3101      	adds	r1, #1
 8001c0a:	6021      	str	r1, [r4, #0]
((&ex_temp)->new_samp) = num;
 8001c0c:	4911      	ldr	r1, [pc, #68]	; (8001c54 <add_sample+0xe4>)
((&in_temp)->new_samp) = num;
 8001c0e:	f8c1 0324 	str.w	r0, [r1, #804]	; 0x324
inj_conversion_channel++;
 8001c12:	3301      	adds	r3, #1
 8001c14:	6013      	str	r3, [r2, #0]
 8001c16:	e7c3      	b.n	8001ba0 <add_sample+0x30>
in_sample_count++;
 8001c18:	4c07      	ldr	r4, [pc, #28]	; (8001c38 <add_sample+0xc8>)
 8001c1a:	6821      	ldr	r1, [r4, #0]
 8001c1c:	3101      	adds	r1, #1
 8001c1e:	6021      	str	r1, [r4, #0]
((&in_temp)->new_samp) = num;
 8001c20:	490d      	ldr	r1, [pc, #52]	; (8001c58 <add_sample+0xe8>)
 8001c22:	e7f4      	b.n	8001c0e <add_sample+0x9e>
 8001c24:	200014a8 	.word	0x200014a8
 8001c28:	20000e10 	.word	0x20000e10
 8001c2c:	20001514 	.word	0x20001514
 8001c30:	20000adc 	.word	0x20000adc
 8001c34:	20001168 	.word	0x20001168
 8001c38:	20000e24 	.word	0x20000e24
 8001c3c:	20000e20 	.word	0x20000e20
 8001c40:	200014c0 	.word	0x200014c0
 8001c44:	20000e14 	.word	0x20000e14
 8001c48:	20000480 	.word	0x20000480
 8001c4c:	20001174 	.word	0x20001174
 8001c50:	200014a0 	.word	0x200014a0
 8001c54:	20000e34 	.word	0x20000e34
 8001c58:	200007ac 	.word	0x200007ac

08001c5c <dc_search>:
uart1_transmit(&prompt);

}

uint8_t dc_search(STRING* cmd)
{
 8001c5c:	b508      	push	{r3, lr}
uint8_t ones;
uint8_t tens;
uint8_t new_duty;

if(((cmd)->length) != 4U)
 8001c5e:	7803      	ldrb	r3, [r0, #0]
 8001c60:	2b04      	cmp	r3, #4
 8001c62:	d118      	bne.n	8001c96 <dc_search+0x3a>
{return 0U;}


if( (((cmd)->string)[0U]) != 'd' )
 8001c64:	7843      	ldrb	r3, [r0, #1]
 8001c66:	2b64      	cmp	r3, #100	; 0x64
 8001c68:	d115      	bne.n	8001c96 <dc_search+0x3a>
{return 0U;}
if( (((cmd)->string)[1U]) != 'c' )
 8001c6a:	7883      	ldrb	r3, [r0, #2]
 8001c6c:	2b63      	cmp	r3, #99	; 0x63
 8001c6e:	d112      	bne.n	8001c96 <dc_search+0x3a>
{return 0U;}

if( ((((cmd)->string)[2U]) > 47U) && ((((cmd)->string)[2U]) < 58U ) )
 8001c70:	78c3      	ldrb	r3, [r0, #3]
 8001c72:	3b30      	subs	r3, #48	; 0x30
 8001c74:	b2db      	uxtb	r3, r3
 8001c76:	2b09      	cmp	r3, #9
 8001c78:	d80d      	bhi.n	8001c96 <dc_search+0x3a>
{tens = (((cmd)->string)[2U]) - 48U; }
else
{return 0U;}

if( ((((cmd)->string)[3U]) > 47U) && ((((cmd)->string)[3U]) < 58U ) )
 8001c7a:	7900      	ldrb	r0, [r0, #4]
 8001c7c:	3830      	subs	r0, #48	; 0x30
 8001c7e:	b2c0      	uxtb	r0, r0
 8001c80:	2809      	cmp	r0, #9
 8001c82:	d808      	bhi.n	8001c96 <dc_search+0x3a>
{ones = (((cmd)->string)[3U]) - 48U;}
else
{return 0U;}

new_duty = (tens*10) + ones;
 8001c84:	eb03 0383 	add.w	r3, r3, r3, lsl #2
 8001c88:	eb00 0043 	add.w	r0, r0, r3, lsl #1

set_duty_cycle(new_duty);
 8001c8c:	b2c0      	uxtb	r0, r0
 8001c8e:	f000 fd67 	bl	8002760 <set_duty_cycle>

return 1U;
 8001c92:	2001      	movs	r0, #1
 8001c94:	bd08      	pop	{r3, pc}
{return 0U;}
 8001c96:	2000      	movs	r0, #0

}
 8001c98:	bd08      	pop	{r3, pc}
	...

08001c9c <current_decode>:


uint8_t current_decode(STRING* cmd)
{
 8001c9c:	b510      	push	{r4, lr}
uint8_t tens;
uint32_t hundreds;
uint32_t thousands;
uint32_t new_current;

if(((cmd)->length) != 6U)
 8001c9e:	7803      	ldrb	r3, [r0, #0]
 8001ca0:	2b06      	cmp	r3, #6
 8001ca2:	d133      	bne.n	8001d0c <current_decode+0x70>
{return 0U;}


if( (((cmd)->string)[0U]) != 'i' )
 8001ca4:	7843      	ldrb	r3, [r0, #1]
 8001ca6:	2b69      	cmp	r3, #105	; 0x69
 8001ca8:	d130      	bne.n	8001d0c <current_decode+0x70>
{return 0U;}
if( (((cmd)->string)[1U]) != 's' )
 8001caa:	7883      	ldrb	r3, [r0, #2]
 8001cac:	2b73      	cmp	r3, #115	; 0x73
 8001cae:	d12d      	bne.n	8001d0c <current_decode+0x70>
{return 0U;}

if( ((((cmd)->string)[2U]) > 47U) && ((((cmd)->string)[2U]) < 58U ) )
 8001cb0:	78c3      	ldrb	r3, [r0, #3]
 8001cb2:	3b30      	subs	r3, #48	; 0x30
 8001cb4:	b2da      	uxtb	r2, r3
 8001cb6:	2a09      	cmp	r2, #9
 8001cb8:	d828      	bhi.n	8001d0c <current_decode+0x70>
{thousands = (((cmd)->string)[2U]) - 48U; }
else
{return 0U;}

if( ((((cmd)->string)[3U]) > 47U) && ((((cmd)->string)[3U]) < 58U ) )
 8001cba:	7904      	ldrb	r4, [r0, #4]
 8001cbc:	3c30      	subs	r4, #48	; 0x30
 8001cbe:	b2e2      	uxtb	r2, r4
 8001cc0:	2a09      	cmp	r2, #9
 8001cc2:	d823      	bhi.n	8001d0c <current_decode+0x70>
{hundreds = (((cmd)->string)[3U]) - 48U;}
else
{return 0U;}

if( ((((cmd)->string)[4U]) > 47U) && ((((cmd)->string)[4U]) < 58U ) )
 8001cc4:	7942      	ldrb	r2, [r0, #5]
 8001cc6:	3a30      	subs	r2, #48	; 0x30
 8001cc8:	b2d2      	uxtb	r2, r2
 8001cca:	2a09      	cmp	r2, #9
 8001ccc:	d81e      	bhi.n	8001d0c <current_decode+0x70>
{tens = (((cmd)->string)[4U]) - 48U;}
else
{return 0U;}

if( ((((cmd)->string)[5U]) > 47U) && ((((cmd)->string)[5U]) < 58U ) )
 8001cce:	7981      	ldrb	r1, [r0, #6]
 8001cd0:	3930      	subs	r1, #48	; 0x30
 8001cd2:	b2c9      	uxtb	r1, r1
 8001cd4:	2909      	cmp	r1, #9
 8001cd6:	d819      	bhi.n	8001d0c <current_decode+0x70>
else
{return 0U;}



new_current = (thousands*1000)+(hundreds * 100) + (tens*10) + ones;
 8001cd8:	2064      	movs	r0, #100	; 0x64
 8001cda:	4344      	muls	r4, r0
 8001cdc:	f44f 707a 	mov.w	r0, #1000	; 0x3e8
 8001ce0:	fb00 4303 	mla	r3, r0, r3, r4
 8001ce4:	440b      	add	r3, r1
 8001ce6:	210a      	movs	r1, #10
 8001ce8:	fb11 3302 	smlabb	r3, r1, r2, r3

if(new_current > DEFAULT_MAX_CURRENT)
 8001cec:	f5b3 6f16 	cmp.w	r3, #2400	; 0x960
 8001cf0:	4a07      	ldr	r2, [pc, #28]	; (8001d10 <current_decode+0x74>)
{hs_i_target = DEFAULT_MAX_CURRENT;}
 8001cf2:	bf86      	itte	hi
 8001cf4:	f44f 6116 	movhi.w	r1, #2400	; 0x960
 8001cf8:	8011      	strhhi	r1, [r2, #0]
else
{hs_i_target = new_current;}
 8001cfa:	8013      	strhls	r3, [r2, #0]

if((system_flags & THERMAL_CON_FLAG) == 0U)
 8001cfc:	4a05      	ldr	r2, [pc, #20]	; (8001d14 <current_decode+0x78>)
 8001cfe:	6812      	ldr	r2, [r2, #0]
 8001d00:	05d2      	lsls	r2, r2, #23
 8001d02:	d401      	bmi.n	8001d08 <current_decode+0x6c>
{i_target = new_current;}
 8001d04:	4a04      	ldr	r2, [pc, #16]	; (8001d18 <current_decode+0x7c>)
 8001d06:	8013      	strh	r3, [r2, #0]

return 1U;
 8001d08:	2001      	movs	r0, #1

}
 8001d0a:	bd10      	pop	{r4, pc}
{return 0U;}
 8001d0c:	2000      	movs	r0, #0
 8001d0e:	bd10      	pop	{r4, pc}
 8001d10:	20000ad4 	.word	0x20000ad4
 8001d14:	20000e20 	.word	0x20000e20
 8001d18:	20001170 	.word	0x20001170

08001d1c <voltage_decode>:


uint8_t voltage_decode(STRING* cmd)
{
 8001d1c:	b510      	push	{r4, lr}
uint8_t tens;
uint32_t hundreds;
uint32_t thousands;
uint32_t new_voltage;

if(((cmd)->length) != 6U)
 8001d1e:	7803      	ldrb	r3, [r0, #0]
 8001d20:	2b06      	cmp	r3, #6
 8001d22:	d12c      	bne.n	8001d7e <voltage_decode+0x62>
{return 0U;}


if( (((cmd)->string)[0U]) != 'v' )
 8001d24:	7843      	ldrb	r3, [r0, #1]
 8001d26:	2b76      	cmp	r3, #118	; 0x76
 8001d28:	d129      	bne.n	8001d7e <voltage_decode+0x62>
{return 0U;}
if( (((cmd)->string)[1U]) != 's' )
 8001d2a:	7883      	ldrb	r3, [r0, #2]
 8001d2c:	2b73      	cmp	r3, #115	; 0x73
 8001d2e:	d126      	bne.n	8001d7e <voltage_decode+0x62>
{return 0U;}

if( ((((cmd)->string)[2U]) > 47U) && ((((cmd)->string)[2U]) < 58U ) )
 8001d30:	78c3      	ldrb	r3, [r0, #3]
 8001d32:	3b30      	subs	r3, #48	; 0x30
 8001d34:	b2da      	uxtb	r2, r3
 8001d36:	2a09      	cmp	r2, #9
 8001d38:	d821      	bhi.n	8001d7e <voltage_decode+0x62>
{thousands = (((cmd)->string)[2U]) - 48U; }
else
{return 0U;}

if( ((((cmd)->string)[3U]) > 47U) && ((((cmd)->string)[3U]) < 58U ) )
 8001d3a:	7904      	ldrb	r4, [r0, #4]
 8001d3c:	3c30      	subs	r4, #48	; 0x30
 8001d3e:	b2e2      	uxtb	r2, r4
 8001d40:	2a09      	cmp	r2, #9
 8001d42:	d81c      	bhi.n	8001d7e <voltage_decode+0x62>
{hundreds = (((cmd)->string)[3U]) - 48U;}
else
{return 0U;}

if( ((((cmd)->string)[4U]) > 47U) && ((((cmd)->string)[4U]) < 58U ) )
 8001d44:	7942      	ldrb	r2, [r0, #5]
 8001d46:	3a30      	subs	r2, #48	; 0x30
 8001d48:	b2d2      	uxtb	r2, r2
 8001d4a:	2a09      	cmp	r2, #9
 8001d4c:	d817      	bhi.n	8001d7e <voltage_decode+0x62>
{tens = (((cmd)->string)[4U]) - 48U;}
else
{return 0U;}

if( ((((cmd)->string)[5U]) > 47U) && ((((cmd)->string)[5U]) < 58U ) )
 8001d4e:	7981      	ldrb	r1, [r0, #6]
 8001d50:	3930      	subs	r1, #48	; 0x30
 8001d52:	b2c9      	uxtb	r1, r1
 8001d54:	2909      	cmp	r1, #9
 8001d56:	d812      	bhi.n	8001d7e <voltage_decode+0x62>
else
{return 0U;}



new_voltage = (thousands*1000)+(hundreds * 100) + (tens*10) + ones;
 8001d58:	2064      	movs	r0, #100	; 0x64
 8001d5a:	4344      	muls	r4, r0
 8001d5c:	f44f 707a 	mov.w	r0, #1000	; 0x3e8
 8001d60:	fb00 4303 	mla	r3, r0, r3, r4
 8001d64:	440b      	add	r3, r1
 8001d66:	210a      	movs	r1, #10
 8001d68:	fb11 3302 	smlabb	r3, r1, r2, r3

if(new_voltage > DEFAULT_MAX_VOLTAGE)
 8001d6c:	f640 4199 	movw	r1, #3225	; 0xc99
 8001d70:	4a04      	ldr	r2, [pc, #16]	; (8001d84 <voltage_decode+0x68>)
 8001d72:	428b      	cmp	r3, r1
{v_ovp = DEFAULT_MAX_VOLTAGE;}
 8001d74:	bf8c      	ite	hi
 8001d76:	8011      	strhhi	r1, [r2, #0]
else
{v_ovp = new_voltage;}
 8001d78:	8013      	strhls	r3, [r2, #0]


return 1U;
 8001d7a:	2001      	movs	r0, #1
 8001d7c:	bd10      	pop	{r4, pc}
{return 0U;}
 8001d7e:	2000      	movs	r0, #0

}
 8001d80:	bd10      	pop	{r4, pc}
 8001d82:	bf00      	nop
 8001d84:	20000e32 	.word	0x20000e32

08001d88 <exp_voltage_decode>:

uint8_t exp_voltage_decode(STRING* cmd)
{
 8001d88:	b510      	push	{r4, lr}
uint8_t tens;
uint32_t hundreds;
uint32_t thousands;
uint32_t new_voltage;

if(((cmd)->length) != 6U)
 8001d8a:	7803      	ldrb	r3, [r0, #0]
 8001d8c:	2b06      	cmp	r3, #6
 8001d8e:	d12c      	bne.n	8001dea <exp_voltage_decode+0x62>
{return 0U;}


if( (((cmd)->string)[0U]) != 'e' )
 8001d90:	7843      	ldrb	r3, [r0, #1]
 8001d92:	2b65      	cmp	r3, #101	; 0x65
 8001d94:	d129      	bne.n	8001dea <exp_voltage_decode+0x62>
{return 0U;}
if( (((cmd)->string)[1U]) != 'v' )
 8001d96:	7883      	ldrb	r3, [r0, #2]
 8001d98:	2b76      	cmp	r3, #118	; 0x76
 8001d9a:	d126      	bne.n	8001dea <exp_voltage_decode+0x62>
{return 0U;}

if( ((((cmd)->string)[2U]) > 47U) && ((((cmd)->string)[2U]) < 58U ) )
 8001d9c:	78c3      	ldrb	r3, [r0, #3]
 8001d9e:	3b30      	subs	r3, #48	; 0x30
 8001da0:	b2da      	uxtb	r2, r3
 8001da2:	2a09      	cmp	r2, #9
 8001da4:	d821      	bhi.n	8001dea <exp_voltage_decode+0x62>
{thousands = (((cmd)->string)[2U]) - 48U; }
else
{return 0U;}

if( ((((cmd)->string)[3U]) > 47U) && ((((cmd)->string)[3U]) < 58U ) )
 8001da6:	7904      	ldrb	r4, [r0, #4]
 8001da8:	3c30      	subs	r4, #48	; 0x30
 8001daa:	b2e2      	uxtb	r2, r4
 8001dac:	2a09      	cmp	r2, #9
 8001dae:	d81c      	bhi.n	8001dea <exp_voltage_decode+0x62>
{hundreds = (((cmd)->string)[3U]) - 48U;}
else
{return 0U;}

if( ((((cmd)->string)[4U]) > 47U) && ((((cmd)->string)[4U]) < 58U ) )
 8001db0:	7942      	ldrb	r2, [r0, #5]
 8001db2:	3a30      	subs	r2, #48	; 0x30
 8001db4:	b2d2      	uxtb	r2, r2
 8001db6:	2a09      	cmp	r2, #9
 8001db8:	d817      	bhi.n	8001dea <exp_voltage_decode+0x62>
{tens = (((cmd)->string)[4U]) - 48U;}
else
{return 0U;}

if( ((((cmd)->string)[5U]) > 47U) && ((((cmd)->string)[5U]) < 58U ) )
 8001dba:	7981      	ldrb	r1, [r0, #6]
 8001dbc:	3930      	subs	r1, #48	; 0x30
 8001dbe:	b2c9      	uxtb	r1, r1
 8001dc0:	2909      	cmp	r1, #9
 8001dc2:	d812      	bhi.n	8001dea <exp_voltage_decode+0x62>
else
{return 0U;}



new_voltage = (thousands*1000)+(hundreds * 100) + (tens*10) + ones;
 8001dc4:	2064      	movs	r0, #100	; 0x64
 8001dc6:	4344      	muls	r4, r0
 8001dc8:	f44f 707a 	mov.w	r0, #1000	; 0x3e8
 8001dcc:	fb00 4303 	mla	r3, r0, r3, r4
 8001dd0:	440b      	add	r3, r1
 8001dd2:	210a      	movs	r1, #10
 8001dd4:	fb11 3302 	smlabb	r3, r1, r2, r3

if(new_voltage > DEFAULT_MAX_VOLTAGE)
 8001dd8:	f640 4199 	movw	r1, #3225	; 0xc99
 8001ddc:	4a04      	ldr	r2, [pc, #16]	; (8001df0 <exp_voltage_decode+0x68>)
 8001dde:	428b      	cmp	r3, r1
{exp_ov = DEFAULT_MAX_VOLTAGE;}
 8001de0:	bf8c      	ite	hi
 8001de2:	8011      	strhhi	r1, [r2, #0]
else
{exp_ov = new_voltage;}
 8001de4:	8013      	strhls	r3, [r2, #0]


return 1U;
 8001de6:	2001      	movs	r0, #1
 8001de8:	bd10      	pop	{r4, pc}
{return 0U;}
 8001dea:	2000      	movs	r0, #0

}
 8001dec:	bd10      	pop	{r4, pc}
 8001dee:	bf00      	nop
 8001df0:	20000e30 	.word	0x20000e30

08001df4 <flagclear>:



void flagclear(void)
{
system_flags &= ~(ADC_CONV_FLAG);
 8001df4:	4a03      	ldr	r2, [pc, #12]	; (8001e04 <flagclear+0x10>)
uart1_transmit(&money);
 8001df6:	4804      	ldr	r0, [pc, #16]	; (8001e08 <flagclear+0x14>)
system_flags &= ~(ADC_CONV_FLAG);
 8001df8:	6813      	ldr	r3, [r2, #0]
 8001dfa:	f023 0304 	bic.w	r3, r3, #4
 8001dfe:	6013      	str	r3, [r2, #0]
uart1_transmit(&money);
 8001e00:	f000 bd0c 	b.w	800281c <uart1_transmit>
 8001e04:	20000e20 	.word	0x20000e20
 8001e08:	200002f7 	.word	0x200002f7

08001e0c <tempreport>:
}


void tempreport(void)
{
 8001e0c:	b538      	push	{r3, r4, r5, lr}
	int32_t temp;
	uart1_transmit(&capE);
 8001e0e:	4810      	ldr	r0, [pc, #64]	; (8001e50 <tempreport+0x44>)
	temp = (&ex_temp)->avg;
	convert_to_ascii(temp);
	uart1_transmit(&num_hold);
 8001e10:	4d10      	ldr	r5, [pc, #64]	; (8001e54 <tempreport+0x48>)
	uart1_transmit(&cli_return);
 8001e12:	4c11      	ldr	r4, [pc, #68]	; (8001e58 <tempreport+0x4c>)
	uart1_transmit(&capE);
 8001e14:	f000 fd02 	bl	800281c <uart1_transmit>
	temp = (&ex_temp)->avg;
 8001e18:	4b10      	ldr	r3, [pc, #64]	; (8001e5c <tempreport+0x50>)
	convert_to_ascii(temp);
 8001e1a:	f8d3 0320 	ldr.w	r0, [r3, #800]	; 0x320
 8001e1e:	f7ff fd95 	bl	800194c <convert_to_ascii>
	uart1_transmit(&num_hold);
 8001e22:	4628      	mov	r0, r5
 8001e24:	f000 fcfa 	bl	800281c <uart1_transmit>
	uart1_transmit(&cli_return);
 8001e28:	4620      	mov	r0, r4
 8001e2a:	f000 fcf7 	bl	800281c <uart1_transmit>

	uart1_transmit(&capI);
 8001e2e:	480c      	ldr	r0, [pc, #48]	; (8001e60 <tempreport+0x54>)
 8001e30:	f000 fcf4 	bl	800281c <uart1_transmit>
	temp = (&in_temp)->avg;
 8001e34:	4b0b      	ldr	r3, [pc, #44]	; (8001e64 <tempreport+0x58>)
	convert_to_ascii(temp);
 8001e36:	f8d3 0320 	ldr.w	r0, [r3, #800]	; 0x320
 8001e3a:	f7ff fd87 	bl	800194c <convert_to_ascii>
	uart1_transmit(&num_hold);
 8001e3e:	4628      	mov	r0, r5
 8001e40:	f000 fcec 	bl	800281c <uart1_transmit>
	uart1_transmit(&cli_return);
 8001e44:	4620      	mov	r0, r4

}
 8001e46:	e8bd 4038 	ldmia.w	sp!, {r3, r4, r5, lr}
	uart1_transmit(&cli_return);
 8001e4a:	f000 bce7 	b.w	800281c <uart1_transmit>
 8001e4e:	bf00      	nop
 8001e50:	200000a5 	.word	0x200000a5
 8001e54:	200014f2 	.word	0x200014f2
 8001e58:	20000108 	.word	0x20000108
 8001e5c:	20000e34 	.word	0x20000e34
 8001e60:	200000c6 	.word	0x200000c6
 8001e64:	200007ac 	.word	0x200007ac

08001e68 <tim1report>:

void tim1report(void)
{
 8001e68:	b510      	push	{r4, lr}
	uint32_t temp;

	temp = ((TIM1)->ARR);
 8001e6a:	4c31      	ldr	r4, [pc, #196]	; (8001f30 <tim1report+0xc8>)
 8001e6c:	6ae0      	ldr	r0, [r4, #44]	; 0x2c
	convert_to_ascii(temp);
 8001e6e:	f7ff fd6d 	bl	800194c <convert_to_ascii>
	uart1_transmit(&num_hold);
 8001e72:	4830      	ldr	r0, [pc, #192]	; (8001f34 <tim1report+0xcc>)
 8001e74:	f000 fcd2 	bl	800281c <uart1_transmit>
	uart1_transmit(&cli_return);
 8001e78:	482f      	ldr	r0, [pc, #188]	; (8001f38 <tim1report+0xd0>)
 8001e7a:	f000 fccf 	bl	800281c <uart1_transmit>


	temp = ((TIM1)->CCR1);
 8001e7e:	6b60      	ldr	r0, [r4, #52]	; 0x34
	convert_to_ascii(temp);
 8001e80:	f7ff fd64 	bl	800194c <convert_to_ascii>
	uart1_transmit(&num_hold);
 8001e84:	482b      	ldr	r0, [pc, #172]	; (8001f34 <tim1report+0xcc>)
 8001e86:	f000 fcc9 	bl	800281c <uart1_transmit>
	uart1_transmit(&cli_return);
 8001e8a:	482b      	ldr	r0, [pc, #172]	; (8001f38 <tim1report+0xd0>)
 8001e8c:	f000 fcc6 	bl	800281c <uart1_transmit>

    temp = ((TIM1)->CCR3);
 8001e90:	6be0      	ldr	r0, [r4, #60]	; 0x3c
	convert_to_ascii(temp);
 8001e92:	f7ff fd5b 	bl	800194c <convert_to_ascii>
	uart1_transmit(&num_hold);
 8001e96:	4827      	ldr	r0, [pc, #156]	; (8001f34 <tim1report+0xcc>)
 8001e98:	f000 fcc0 	bl	800281c <uart1_transmit>
	uart1_transmit(&cli_return);
 8001e9c:	4826      	ldr	r0, [pc, #152]	; (8001f38 <tim1report+0xd0>)
 8001e9e:	f000 fcbd 	bl	800281c <uart1_transmit>


	temp = ((TIM1)->SR);
 8001ea2:	6920      	ldr	r0, [r4, #16]
	convert_to_ascii(temp);
 8001ea4:	f7ff fd52 	bl	800194c <convert_to_ascii>
	uart1_transmit(&num_hold);
 8001ea8:	4822      	ldr	r0, [pc, #136]	; (8001f34 <tim1report+0xcc>)
 8001eaa:	f000 fcb7 	bl	800281c <uart1_transmit>
	uart1_transmit(&cli_return);
 8001eae:	4822      	ldr	r0, [pc, #136]	; (8001f38 <tim1report+0xd0>)
 8001eb0:	f000 fcb4 	bl	800281c <uart1_transmit>

	temp = ((TIM1)->CCMR1);
 8001eb4:	69a0      	ldr	r0, [r4, #24]
	convert_to_ascii(temp);
 8001eb6:	f7ff fd49 	bl	800194c <convert_to_ascii>
	uart1_transmit(&num_hold);
 8001eba:	481e      	ldr	r0, [pc, #120]	; (8001f34 <tim1report+0xcc>)
 8001ebc:	f000 fcae 	bl	800281c <uart1_transmit>
	uart1_transmit(&cli_return);
 8001ec0:	481d      	ldr	r0, [pc, #116]	; (8001f38 <tim1report+0xd0>)
 8001ec2:	f000 fcab 	bl	800281c <uart1_transmit>

	temp = ((TIM1)->CCMR2);
 8001ec6:	69e0      	ldr	r0, [r4, #28]
	convert_to_ascii(temp);
 8001ec8:	f7ff fd40 	bl	800194c <convert_to_ascii>
	uart1_transmit(&num_hold);
 8001ecc:	4819      	ldr	r0, [pc, #100]	; (8001f34 <tim1report+0xcc>)
 8001ece:	f000 fca5 	bl	800281c <uart1_transmit>
	uart1_transmit(&cli_return);
 8001ed2:	4819      	ldr	r0, [pc, #100]	; (8001f38 <tim1report+0xd0>)
 8001ed4:	f000 fca2 	bl	800281c <uart1_transmit>


	temp = ((TIM1)->CCMR1);
 8001ed8:	69a0      	ldr	r0, [r4, #24]
	convert_to_ascii(temp);
 8001eda:	f7ff fd37 	bl	800194c <convert_to_ascii>
	uart1_transmit(&num_hold);
 8001ede:	4815      	ldr	r0, [pc, #84]	; (8001f34 <tim1report+0xcc>)
 8001ee0:	f000 fc9c 	bl	800281c <uart1_transmit>
	uart1_transmit(&cli_return);
 8001ee4:	4814      	ldr	r0, [pc, #80]	; (8001f38 <tim1report+0xd0>)
 8001ee6:	f000 fc99 	bl	800281c <uart1_transmit>

	temp = ((TIM1)->CR1);
 8001eea:	6820      	ldr	r0, [r4, #0]
	convert_to_ascii(temp);
 8001eec:	f7ff fd2e 	bl	800194c <convert_to_ascii>
	uart1_transmit(&num_hold);
 8001ef0:	4810      	ldr	r0, [pc, #64]	; (8001f34 <tim1report+0xcc>)
 8001ef2:	f000 fc93 	bl	800281c <uart1_transmit>
	uart1_transmit(&cli_return);
 8001ef6:	4810      	ldr	r0, [pc, #64]	; (8001f38 <tim1report+0xd0>)
 8001ef8:	f000 fc90 	bl	800281c <uart1_transmit>

	temp = mode_check();
 8001efc:	f000 fbe6 	bl	80026cc <mode_check>

	switch(temp)
 8001f00:	3801      	subs	r0, #1
 8001f02:	2803      	cmp	r0, #3
 8001f04:	d811      	bhi.n	8001f2a <tim1report+0xc2>
 8001f06:	e8df f000 	tbb	[pc, r0]
 8001f0a:	0a02      	.short	0x0a02
 8001f0c:	0e0c      	.short	0x0e0c
	{
	case LOCKOUT_MODE:uart1_transmit(&lock); break;
 8001f0e:	480b      	ldr	r0, [pc, #44]	; (8001f3c <tim1report+0xd4>)
	case PASSTHRU_MODE:uart1_transmit(&pass); break;
	case BOOST_MODE:uart1_transmit(&boost); break;
	case BUCK_MODE:uart1_transmit(&buck); break;
	default:uart1_transmit(&cp1); break;
 8001f10:	f000 fc84 	bl	800281c <uart1_transmit>
	}

	uart1_transmit(&cli_return);
 8001f14:	4808      	ldr	r0, [pc, #32]	; (8001f38 <tim1report+0xd0>)
}
 8001f16:	e8bd 4010 	ldmia.w	sp!, {r4, lr}
	uart1_transmit(&cli_return);
 8001f1a:	f000 bc7f 	b.w	800281c <uart1_transmit>
	case PASSTHRU_MODE:uart1_transmit(&pass); break;
 8001f1e:	4808      	ldr	r0, [pc, #32]	; (8001f40 <tim1report+0xd8>)
 8001f20:	e7f6      	b.n	8001f10 <tim1report+0xa8>
	case BOOST_MODE:uart1_transmit(&boost); break;
 8001f22:	4808      	ldr	r0, [pc, #32]	; (8001f44 <tim1report+0xdc>)
 8001f24:	e7f4      	b.n	8001f10 <tim1report+0xa8>
	case BUCK_MODE:uart1_transmit(&buck); break;
 8001f26:	4808      	ldr	r0, [pc, #32]	; (8001f48 <tim1report+0xe0>)
 8001f28:	e7f2      	b.n	8001f10 <tim1report+0xa8>
	default:uart1_transmit(&cp1); break;
 8001f2a:	4808      	ldr	r0, [pc, #32]	; (8001f4c <tim1report+0xe4>)
 8001f2c:	e7f0      	b.n	8001f10 <tim1report+0xa8>
 8001f2e:	bf00      	nop
 8001f30:	40012c00 	.word	0x40012c00
 8001f34:	200014f2 	.word	0x200014f2
 8001f38:	20000108 	.word	0x20000108
 8001f3c:	200002d6 	.word	0x200002d6
 8001f40:	20000328 	.word	0x20000328
 8001f44:	20000042 	.word	0x20000042
 8001f48:	20000063 	.word	0x20000063
 8001f4c:	2000014a 	.word	0x2000014a

08001f50 <voltreport>:

void voltreport(void)
{
 8001f50:	b5f8      	push	{r3, r4, r5, r6, r7, lr}
	uint32_t temp;


	uart1_transmit(&capC);
 8001f52:	4f1f      	ldr	r7, [pc, #124]	; (8001fd0 <voltreport+0x80>)
	temp = (cs_channel.avg- cs_offset);
 8001f54:	4e1f      	ldr	r6, [pc, #124]	; (8001fd4 <voltreport+0x84>)
	convert_to_ascii(temp);
	uart1_transmit(&num_hold);
 8001f56:	4d20      	ldr	r5, [pc, #128]	; (8001fd8 <voltreport+0x88>)
	uart1_transmit(&cli_return);
 8001f58:	4c20      	ldr	r4, [pc, #128]	; (8001fdc <voltreport+0x8c>)
	uart1_transmit(&capC);
 8001f5a:	4638      	mov	r0, r7
 8001f5c:	f000 fc5e 	bl	800281c <uart1_transmit>
	temp = (cs_channel.avg- cs_offset);
 8001f60:	4b1f      	ldr	r3, [pc, #124]	; (8001fe0 <voltreport+0x90>)
 8001f62:	f8d6 0320 	ldr.w	r0, [r6, #800]	; 0x320
 8001f66:	881b      	ldrh	r3, [r3, #0]
	convert_to_ascii(temp);
 8001f68:	1ac0      	subs	r0, r0, r3
 8001f6a:	f7ff fcef 	bl	800194c <convert_to_ascii>
	uart1_transmit(&num_hold);
 8001f6e:	4628      	mov	r0, r5
 8001f70:	f000 fc54 	bl	800281c <uart1_transmit>
	uart1_transmit(&cli_return);
 8001f74:	4620      	mov	r0, r4
 8001f76:	f000 fc51 	bl	800281c <uart1_transmit>


	uart1_transmit(&capC);
 8001f7a:	4638      	mov	r0, r7
 8001f7c:	f000 fc4e 	bl	800281c <uart1_transmit>
	temp = (cs_channel.avg);
	convert_to_ascii(temp);
 8001f80:	f8d6 0320 	ldr.w	r0, [r6, #800]	; 0x320
 8001f84:	f7ff fce2 	bl	800194c <convert_to_ascii>
	uart1_transmit(&num_hold);
 8001f88:	4628      	mov	r0, r5
 8001f8a:	f000 fc47 	bl	800281c <uart1_transmit>
	uart1_transmit(&cli_return);
 8001f8e:	4620      	mov	r0, r4
 8001f90:	f000 fc44 	bl	800281c <uart1_transmit>



	uart1_transmit(&capO);
 8001f94:	4813      	ldr	r0, [pc, #76]	; (8001fe4 <voltreport+0x94>)
 8001f96:	f000 fc41 	bl	800281c <uart1_transmit>
	temp = ov_channel.avg;
 8001f9a:	4b13      	ldr	r3, [pc, #76]	; (8001fe8 <voltreport+0x98>)
	convert_to_ascii(temp);
 8001f9c:	f8d3 0320 	ldr.w	r0, [r3, #800]	; 0x320
 8001fa0:	f7ff fcd4 	bl	800194c <convert_to_ascii>
	uart1_transmit(&num_hold);
 8001fa4:	4628      	mov	r0, r5
 8001fa6:	f000 fc39 	bl	800281c <uart1_transmit>
	uart1_transmit(&cli_return);
 8001faa:	4620      	mov	r0, r4
 8001fac:	f000 fc36 	bl	800281c <uart1_transmit>

	uart1_transmit(&capI);
 8001fb0:	480e      	ldr	r0, [pc, #56]	; (8001fec <voltreport+0x9c>)
 8001fb2:	f000 fc33 	bl	800281c <uart1_transmit>
	temp = iv_channel.avg;
 8001fb6:	4b0e      	ldr	r3, [pc, #56]	; (8001ff0 <voltreport+0xa0>)
	convert_to_ascii(temp);
 8001fb8:	f8d3 0320 	ldr.w	r0, [r3, #800]	; 0x320
 8001fbc:	f7ff fcc6 	bl	800194c <convert_to_ascii>
	uart1_transmit(&num_hold);
 8001fc0:	4628      	mov	r0, r5
 8001fc2:	f000 fc2b 	bl	800281c <uart1_transmit>
	uart1_transmit(&cli_return);
 8001fc6:	4620      	mov	r0, r4
}
 8001fc8:	e8bd 40f8 	ldmia.w	sp!, {r3, r4, r5, r6, r7, lr}
	uart1_transmit(&cli_return);
 8001fcc:	f000 bc26 	b.w	800281c <uart1_transmit>
 8001fd0:	20000084 	.word	0x20000084
 8001fd4:	20000adc 	.word	0x20000adc
 8001fd8:	200014f2 	.word	0x200014f2
 8001fdc:	20000108 	.word	0x20000108
 8001fe0:	200014c8 	.word	0x200014c8
 8001fe4:	200000e7 	.word	0x200000e7
 8001fe8:	20000480 	.word	0x20000480
 8001fec:	200000c6 	.word	0x200000c6
 8001ff0:	20001174 	.word	0x20001174

08001ff4 <timereport>:

void timereport(void)
{
 8001ff4:	b570      	push	{r4, r5, r6, lr}
	uint32_t temp;

	temp = (((system_time)->time_nums)[ticks]);
 8001ff6:	4e1b      	ldr	r6, [pc, #108]	; (8002064 <timereport+0x70>)
	convert_to_ascii(temp);
	uart1_transmit(&num_hold);
 8001ff8:	4d1b      	ldr	r5, [pc, #108]	; (8002068 <timereport+0x74>)
	temp = (((system_time)->time_nums)[ticks]);
 8001ffa:	6833      	ldr	r3, [r6, #0]
	uart1_transmit(&cli_return);
 8001ffc:	4c1b      	ldr	r4, [pc, #108]	; (800206c <timereport+0x78>)
	convert_to_ascii(temp);
 8001ffe:	6818      	ldr	r0, [r3, #0]
 8002000:	f7ff fca4 	bl	800194c <convert_to_ascii>
	uart1_transmit(&num_hold);
 8002004:	4628      	mov	r0, r5
 8002006:	f000 fc09 	bl	800281c <uart1_transmit>
	uart1_transmit(&cli_return);
 800200a:	4620      	mov	r0, r4
 800200c:	f000 fc06 	bl	800281c <uart1_transmit>

	temp = (((system_time)->time_nums)[millis]);
 8002010:	6833      	ldr	r3, [r6, #0]
	convert_to_ascii(temp);
 8002012:	6858      	ldr	r0, [r3, #4]
 8002014:	f7ff fc9a 	bl	800194c <convert_to_ascii>
	uart1_transmit(&num_hold);
 8002018:	4628      	mov	r0, r5
 800201a:	f000 fbff 	bl	800281c <uart1_transmit>
	uart1_transmit(&cli_return);
 800201e:	4620      	mov	r0, r4
 8002020:	f000 fbfc 	bl	800281c <uart1_transmit>

	temp = (((system_time)->time_nums)[seconds]);
 8002024:	6833      	ldr	r3, [r6, #0]
	convert_to_ascii(temp);
 8002026:	6898      	ldr	r0, [r3, #8]
 8002028:	f7ff fc90 	bl	800194c <convert_to_ascii>
	uart1_transmit(&num_hold);
 800202c:	4628      	mov	r0, r5
 800202e:	f000 fbf5 	bl	800281c <uart1_transmit>
	uart1_transmit(&cli_return);
 8002032:	4620      	mov	r0, r4
 8002034:	f000 fbf2 	bl	800281c <uart1_transmit>

	temp = (((system_time)->time_nums)[minutes]);
 8002038:	6833      	ldr	r3, [r6, #0]
	convert_to_ascii(temp);
 800203a:	68d8      	ldr	r0, [r3, #12]
 800203c:	f7ff fc86 	bl	800194c <convert_to_ascii>
	uart1_transmit(&num_hold);
 8002040:	4628      	mov	r0, r5
 8002042:	f000 fbeb 	bl	800281c <uart1_transmit>
	uart1_transmit(&cli_return);
 8002046:	4620      	mov	r0, r4
 8002048:	f000 fbe8 	bl	800281c <uart1_transmit>

	temp = (((system_time)->time_nums)[hours]);
 800204c:	6833      	ldr	r3, [r6, #0]
	convert_to_ascii(temp);
 800204e:	6918      	ldr	r0, [r3, #16]
 8002050:	f7ff fc7c 	bl	800194c <convert_to_ascii>
	uart1_transmit(&num_hold);
 8002054:	4628      	mov	r0, r5
 8002056:	f000 fbe1 	bl	800281c <uart1_transmit>
	uart1_transmit(&cli_return);
 800205a:	4620      	mov	r0, r4
}
 800205c:	e8bd 4070 	ldmia.w	sp!, {r4, r5, r6, lr}
	uart1_transmit(&cli_return);
 8002060:	f000 bbdc 	b.w	800281c <uart1_transmit>
 8002064:	200014a4 	.word	0x200014a4
 8002068:	200014f2 	.word	0x200014f2
 800206c:	20000108 	.word	0x20000108

08002070 <bankreport>:


void bankreport(void)
{
 8002070:	b538      	push	{r3, r4, r5, lr}
	uint32_t temp;
	uart1_transmit(&capC);
 8002072:	4815      	ldr	r0, [pc, #84]	; (80020c8 <bankreport+0x58>)
	temp = cs_sample_count;
	convert_to_ascii(temp);
	uart1_transmit(&num_hold);
 8002074:	4d15      	ldr	r5, [pc, #84]	; (80020cc <bankreport+0x5c>)
	uart1_transmit(&cli_return);
 8002076:	4c16      	ldr	r4, [pc, #88]	; (80020d0 <bankreport+0x60>)
	uart1_transmit(&capC);
 8002078:	f000 fbd0 	bl	800281c <uart1_transmit>
	temp = cs_sample_count;
 800207c:	4b15      	ldr	r3, [pc, #84]	; (80020d4 <bankreport+0x64>)
	convert_to_ascii(temp);
 800207e:	6818      	ldr	r0, [r3, #0]
 8002080:	f7ff fc64 	bl	800194c <convert_to_ascii>
	uart1_transmit(&num_hold);
 8002084:	4628      	mov	r0, r5
 8002086:	f000 fbc9 	bl	800281c <uart1_transmit>
	uart1_transmit(&cli_return);
 800208a:	4620      	mov	r0, r4
 800208c:	f000 fbc6 	bl	800281c <uart1_transmit>

	uart1_transmit(&capO);
 8002090:	4811      	ldr	r0, [pc, #68]	; (80020d8 <bankreport+0x68>)
 8002092:	f000 fbc3 	bl	800281c <uart1_transmit>
	temp = ov_sample_count;
 8002096:	4b11      	ldr	r3, [pc, #68]	; (80020dc <bankreport+0x6c>)
	convert_to_ascii(temp);
 8002098:	6818      	ldr	r0, [r3, #0]
 800209a:	f7ff fc57 	bl	800194c <convert_to_ascii>
	uart1_transmit(&num_hold);
 800209e:	4628      	mov	r0, r5
 80020a0:	f000 fbbc 	bl	800281c <uart1_transmit>
	uart1_transmit(&cli_return);
 80020a4:	4620      	mov	r0, r4
 80020a6:	f000 fbb9 	bl	800281c <uart1_transmit>

	uart1_transmit(&capI);
 80020aa:	480d      	ldr	r0, [pc, #52]	; (80020e0 <bankreport+0x70>)
 80020ac:	f000 fbb6 	bl	800281c <uart1_transmit>
	temp = iv_sample_count;
 80020b0:	4b0c      	ldr	r3, [pc, #48]	; (80020e4 <bankreport+0x74>)
	convert_to_ascii(temp);
 80020b2:	6818      	ldr	r0, [r3, #0]
 80020b4:	f7ff fc4a 	bl	800194c <convert_to_ascii>
	uart1_transmit(&num_hold);
 80020b8:	4628      	mov	r0, r5
 80020ba:	f000 fbaf 	bl	800281c <uart1_transmit>
	uart1_transmit(&cli_return);
 80020be:	4620      	mov	r0, r4

}
 80020c0:	e8bd 4038 	ldmia.w	sp!, {r3, r4, r5, lr}
	uart1_transmit(&cli_return);
 80020c4:	f000 bbaa 	b.w	800281c <uart1_transmit>
 80020c8:	20000084 	.word	0x20000084
 80020cc:	200014f2 	.word	0x200014f2
 80020d0:	20000108 	.word	0x20000108
 80020d4:	20001514 	.word	0x20001514
 80020d8:	200000e7 	.word	0x200000e7
 80020dc:	200014c0 	.word	0x200014c0
 80020e0:	200000c6 	.word	0x200000c6
 80020e4:	20000e14 	.word	0x20000e14

080020e8 <flagreport>:


void flagreport(void)
{
 80020e8:	b538      	push	{r3, r4, r5, lr}
	uint32_t temp;
	temp = system_flags;
 80020ea:	4b0c      	ldr	r3, [pc, #48]	; (800211c <flagreport+0x34>)
	convert_to_ascii(temp);
	uart1_transmit(&num_hold);
 80020ec:	4d0c      	ldr	r5, [pc, #48]	; (8002120 <flagreport+0x38>)
	convert_to_ascii(temp);
 80020ee:	6818      	ldr	r0, [r3, #0]
	uart1_transmit(&cli_return);
 80020f0:	4c0c      	ldr	r4, [pc, #48]	; (8002124 <flagreport+0x3c>)
	convert_to_ascii(temp);
 80020f2:	f7ff fc2b 	bl	800194c <convert_to_ascii>
	uart1_transmit(&num_hold);
 80020f6:	4628      	mov	r0, r5
 80020f8:	f000 fb90 	bl	800281c <uart1_transmit>
	uart1_transmit(&cli_return);
 80020fc:	4620      	mov	r0, r4
 80020fe:	f000 fb8d 	bl	800281c <uart1_transmit>

	temp = adc_conversion_channel;
 8002102:	4b09      	ldr	r3, [pc, #36]	; (8002128 <flagreport+0x40>)
	convert_to_ascii(temp);
 8002104:	6818      	ldr	r0, [r3, #0]
 8002106:	f7ff fc21 	bl	800194c <convert_to_ascii>
	uart1_transmit(&num_hold);
 800210a:	4628      	mov	r0, r5
 800210c:	f000 fb86 	bl	800281c <uart1_transmit>
	uart1_transmit(&cli_return);
 8002110:	4620      	mov	r0, r4


}
 8002112:	e8bd 4038 	ldmia.w	sp!, {r3, r4, r5, lr}
	uart1_transmit(&cli_return);
 8002116:	f000 bb81 	b.w	800281c <uart1_transmit>
 800211a:	bf00      	nop
 800211c:	20000e20 	.word	0x20000e20
 8002120:	200014f2 	.word	0x200014f2
 8002124:	20000108 	.word	0x20000108
 8002128:	20000e10 	.word	0x20000e10

0800212c <convreport>:

void convreport(void)
{
 800212c:	b538      	push	{r3, r4, r5, lr}
	uint32_t temp;
	temp = conversion_count;
 800212e:	4b11      	ldr	r3, [pc, #68]	; (8002174 <convreport+0x48>)
	convert_to_ascii(temp);
	uart1_transmit(&num_hold);
 8002130:	4d11      	ldr	r5, [pc, #68]	; (8002178 <convreport+0x4c>)
	convert_to_ascii(temp);
 8002132:	6818      	ldr	r0, [r3, #0]
	uart1_transmit(&cli_return);
 8002134:	4c11      	ldr	r4, [pc, #68]	; (800217c <convreport+0x50>)
	convert_to_ascii(temp);
 8002136:	f7ff fc09 	bl	800194c <convert_to_ascii>
	uart1_transmit(&num_hold);
 800213a:	4628      	mov	r0, r5
 800213c:	f000 fb6e 	bl	800281c <uart1_transmit>
	uart1_transmit(&cli_return);
 8002140:	4620      	mov	r0, r4
 8002142:	f000 fb6b 	bl	800281c <uart1_transmit>

	temp = avg_count;
 8002146:	4b0e      	ldr	r3, [pc, #56]	; (8002180 <convreport+0x54>)
	convert_to_ascii(temp);
 8002148:	6818      	ldr	r0, [r3, #0]
 800214a:	f7ff fbff 	bl	800194c <convert_to_ascii>
	uart1_transmit(&num_hold);
 800214e:	4628      	mov	r0, r5
 8002150:	f000 fb64 	bl	800281c <uart1_transmit>
	uart1_transmit(&cli_return);
 8002154:	4620      	mov	r0, r4
 8002156:	f000 fb61 	bl	800281c <uart1_transmit>

	temp = ((ADC1)->SQR1);
 800215a:	4b0a      	ldr	r3, [pc, #40]	; (8002184 <convreport+0x58>)
 800215c:	6b18      	ldr	r0, [r3, #48]	; 0x30
	convert_to_ascii(temp);
 800215e:	f7ff fbf5 	bl	800194c <convert_to_ascii>
	uart1_transmit(&num_hold);
 8002162:	4628      	mov	r0, r5
 8002164:	f000 fb5a 	bl	800281c <uart1_transmit>
	uart1_transmit(&cli_return);
 8002168:	4620      	mov	r0, r4



}
 800216a:	e8bd 4038 	ldmia.w	sp!, {r3, r4, r5, lr}
	uart1_transmit(&cli_return);
 800216e:	f000 bb55 	b.w	800281c <uart1_transmit>
 8002172:	bf00      	nop
 8002174:	200014a8 	.word	0x200014a8
 8002178:	200014f2 	.word	0x200014f2
 800217c:	20000108 	.word	0x20000108
 8002180:	200014e8 	.word	0x200014e8
 8002184:	50040000 	.word	0x50040000

08002188 <tbankreport>:

void tbankreport(void)
{
 8002188:	b538      	push	{r3, r4, r5, lr}

	uint32_t temp;

	uart1_transmit(&capE);
 800218a:	480f      	ldr	r0, [pc, #60]	; (80021c8 <tbankreport+0x40>)
	temp = ex_sample_count;
	convert_to_ascii(temp);
	uart1_transmit(&num_hold);
 800218c:	4d0f      	ldr	r5, [pc, #60]	; (80021cc <tbankreport+0x44>)
	uart1_transmit(&cli_return);
 800218e:	4c10      	ldr	r4, [pc, #64]	; (80021d0 <tbankreport+0x48>)
	uart1_transmit(&capE);
 8002190:	f000 fb44 	bl	800281c <uart1_transmit>
	temp = ex_sample_count;
 8002194:	4b0f      	ldr	r3, [pc, #60]	; (80021d4 <tbankreport+0x4c>)
	convert_to_ascii(temp);
 8002196:	6818      	ldr	r0, [r3, #0]
 8002198:	f7ff fbd8 	bl	800194c <convert_to_ascii>
	uart1_transmit(&num_hold);
 800219c:	4628      	mov	r0, r5
 800219e:	f000 fb3d 	bl	800281c <uart1_transmit>
	uart1_transmit(&cli_return);
 80021a2:	4620      	mov	r0, r4
 80021a4:	f000 fb3a 	bl	800281c <uart1_transmit>

	uart1_transmit(&capI);
 80021a8:	480b      	ldr	r0, [pc, #44]	; (80021d8 <tbankreport+0x50>)
 80021aa:	f000 fb37 	bl	800281c <uart1_transmit>
	temp = in_sample_count;
 80021ae:	4b0b      	ldr	r3, [pc, #44]	; (80021dc <tbankreport+0x54>)
	convert_to_ascii(temp);
 80021b0:	6818      	ldr	r0, [r3, #0]
 80021b2:	f7ff fbcb 	bl	800194c <convert_to_ascii>
	uart1_transmit(&num_hold);
 80021b6:	4628      	mov	r0, r5
 80021b8:	f000 fb30 	bl	800281c <uart1_transmit>
	uart1_transmit(&cli_return);
 80021bc:	4620      	mov	r0, r4
}
 80021be:	e8bd 4038 	ldmia.w	sp!, {r3, r4, r5, lr}
	uart1_transmit(&cli_return);
 80021c2:	f000 bb2b 	b.w	800281c <uart1_transmit>
 80021c6:	bf00      	nop
 80021c8:	200000a5 	.word	0x200000a5
 80021cc:	200014f2 	.word	0x200014f2
 80021d0:	20000108 	.word	0x20000108
 80021d4:	20001168 	.word	0x20001168
 80021d8:	200000c6 	.word	0x200000c6
 80021dc:	20000e24 	.word	0x20000e24

080021e0 <stupreport>:

void stupreport(void)
{
 80021e0:	b508      	push	{r3, lr}
	uint32_t temp;

	temp = start_up_flags;
 80021e2:	4b06      	ldr	r3, [pc, #24]	; (80021fc <stupreport+0x1c>)
	convert_to_ascii(temp);
 80021e4:	6818      	ldr	r0, [r3, #0]
 80021e6:	f7ff fbb1 	bl	800194c <convert_to_ascii>
	uart1_transmit(&num_hold);
 80021ea:	4805      	ldr	r0, [pc, #20]	; (8002200 <stupreport+0x20>)
 80021ec:	f000 fb16 	bl	800281c <uart1_transmit>
	uart1_transmit(&cli_return);
 80021f0:	4804      	ldr	r0, [pc, #16]	; (8002204 <stupreport+0x24>)

}
 80021f2:	e8bd 4008 	ldmia.w	sp!, {r3, lr}
	uart1_transmit(&cli_return);
 80021f6:	f000 bb11 	b.w	800281c <uart1_transmit>
 80021fa:	bf00      	nop
 80021fc:	200014b0 	.word	0x200014b0
 8002200:	200014f2 	.word	0x200014f2
 8002204:	20000108 	.word	0x20000108

08002208 <dacreport>:

void dacreport(void)
{
 8002208:	b508      	push	{r3, lr}
	uint32_t temp;

	temp = ((DAC)->DOR2);
 800220a:	4b06      	ldr	r3, [pc, #24]	; (8002224 <dacreport+0x1c>)
 800220c:	6b18      	ldr	r0, [r3, #48]	; 0x30
	convert_to_ascii(temp);
 800220e:	f7ff fb9d 	bl	800194c <convert_to_ascii>
	uart1_transmit(&num_hold);
 8002212:	4805      	ldr	r0, [pc, #20]	; (8002228 <dacreport+0x20>)
 8002214:	f000 fb02 	bl	800281c <uart1_transmit>
	uart1_transmit(&cli_return);
 8002218:	4804      	ldr	r0, [pc, #16]	; (800222c <dacreport+0x24>)


}
 800221a:	e8bd 4008 	ldmia.w	sp!, {r3, lr}
	uart1_transmit(&cli_return);
 800221e:	f000 bafd 	b.w	800281c <uart1_transmit>
 8002222:	bf00      	nop
 8002224:	40007400 	.word	0x40007400
 8002228:	200014f2 	.word	0x200014f2
 800222c:	20000108 	.word	0x20000108

08002230 <adcreport>:

void adcreport(void)
{
 8002230:	b570      	push	{r4, r5, r6, lr}

	uint32_t temp;

	temp = ((ADC1)->TR1)&0x0000FFFF;
 8002232:	4e15      	ldr	r6, [pc, #84]	; (8002288 <adcreport+0x58>)
	convert_to_ascii(temp);
	uart1_transmit(&num_hold);
 8002234:	4d15      	ldr	r5, [pc, #84]	; (800228c <adcreport+0x5c>)
	temp = ((ADC1)->TR1)&0x0000FFFF;
 8002236:	6a30      	ldr	r0, [r6, #32]
	uart1_transmit(&cli_return);
 8002238:	4c15      	ldr	r4, [pc, #84]	; (8002290 <adcreport+0x60>)
	convert_to_ascii(temp);
 800223a:	b280      	uxth	r0, r0
 800223c:	f7ff fb86 	bl	800194c <convert_to_ascii>
	uart1_transmit(&num_hold);
 8002240:	4628      	mov	r0, r5
 8002242:	f000 faeb 	bl	800281c <uart1_transmit>
	uart1_transmit(&cli_return);
 8002246:	4620      	mov	r0, r4
 8002248:	f000 fae8 	bl	800281c <uart1_transmit>

	temp = (((ADC1)->TR1)>>16U)&0x0000FFFF;
 800224c:	6a30      	ldr	r0, [r6, #32]
	convert_to_ascii(temp);
 800224e:	0c00      	lsrs	r0, r0, #16
 8002250:	f7ff fb7c 	bl	800194c <convert_to_ascii>
	uart1_transmit(&num_hold);
 8002254:	4628      	mov	r0, r5
 8002256:	f000 fae1 	bl	800281c <uart1_transmit>
	uart1_transmit(&cli_return);
 800225a:	4620      	mov	r0, r4
 800225c:	f000 fade 	bl	800281c <uart1_transmit>

	temp = (((ADC1)->CFGR));
 8002260:	68f0      	ldr	r0, [r6, #12]
	convert_to_ascii(temp);
 8002262:	f7ff fb73 	bl	800194c <convert_to_ascii>
	uart1_transmit(&num_hold);
 8002266:	4628      	mov	r0, r5
 8002268:	f000 fad8 	bl	800281c <uart1_transmit>
	uart1_transmit(&cli_return);
 800226c:	4620      	mov	r0, r4
 800226e:	f000 fad5 	bl	800281c <uart1_transmit>

	temp = (((ADC1)->ISR));
 8002272:	6830      	ldr	r0, [r6, #0]
	convert_to_ascii(temp);
 8002274:	f7ff fb6a 	bl	800194c <convert_to_ascii>
	uart1_transmit(&num_hold);
 8002278:	4628      	mov	r0, r5
 800227a:	f000 facf 	bl	800281c <uart1_transmit>
	uart1_transmit(&cli_return);
 800227e:	4620      	mov	r0, r4



}
 8002280:	e8bd 4070 	ldmia.w	sp!, {r4, r5, r6, lr}
	uart1_transmit(&cli_return);
 8002284:	f000 baca 	b.w	800281c <uart1_transmit>
 8002288:	50040000 	.word	0x50040000
 800228c:	200014f2 	.word	0x200014f2
 8002290:	20000108 	.word	0x20000108

08002294 <system_ins_search>:
{
 8002294:	b510      	push	{r4, lr}
 8002296:	4604      	mov	r4, r0
uart1_transmit(&cli_return);
 8002298:	4878      	ldr	r0, [pc, #480]	; (800247c <system_ins_search+0x1e8>)
 800229a:	f000 fabf 	bl	800281c <uart1_transmit>
if(string_compare(cmd,&timrpt))
 800229e:	4978      	ldr	r1, [pc, #480]	; (8002480 <system_ins_search+0x1ec>)
 80022a0:	4620      	mov	r0, r4
 80022a2:	f7ff fb91 	bl	80019c8 <string_compare>
 80022a6:	b108      	cbz	r0, 80022ac <system_ins_search+0x18>
{tim1report();}
 80022a8:	f7ff fdde 	bl	8001e68 <tim1report>
if(string_compare(cmd,&voltrpt))
 80022ac:	4975      	ldr	r1, [pc, #468]	; (8002484 <system_ins_search+0x1f0>)
 80022ae:	4620      	mov	r0, r4
 80022b0:	f7ff fb8a 	bl	80019c8 <string_compare>
 80022b4:	b108      	cbz	r0, 80022ba <system_ins_search+0x26>
{voltreport();}
 80022b6:	f7ff fe4b 	bl	8001f50 <voltreport>
if(string_compare(cmd,&timerpt))
 80022ba:	4973      	ldr	r1, [pc, #460]	; (8002488 <system_ins_search+0x1f4>)
 80022bc:	4620      	mov	r0, r4
 80022be:	f7ff fb83 	bl	80019c8 <string_compare>
 80022c2:	b108      	cbz	r0, 80022c8 <system_ins_search+0x34>
{timereport();}
 80022c4:	f7ff fe96 	bl	8001ff4 <timereport>
if(string_compare(cmd,&bankrpt))
 80022c8:	4970      	ldr	r1, [pc, #448]	; (800248c <system_ins_search+0x1f8>)
 80022ca:	4620      	mov	r0, r4
 80022cc:	f7ff fb7c 	bl	80019c8 <string_compare>
 80022d0:	b108      	cbz	r0, 80022d6 <system_ins_search+0x42>
{bankreport();}
 80022d2:	f7ff fecd 	bl	8002070 <bankreport>
if(string_compare(cmd,&tbankrpt))
 80022d6:	496e      	ldr	r1, [pc, #440]	; (8002490 <system_ins_search+0x1fc>)
 80022d8:	4620      	mov	r0, r4
 80022da:	f7ff fb75 	bl	80019c8 <string_compare>
 80022de:	b108      	cbz	r0, 80022e4 <system_ins_search+0x50>
{tbankreport();}
 80022e0:	f7ff ff52 	bl	8002188 <tbankreport>
if(string_compare(cmd,&flagrpt))
 80022e4:	496b      	ldr	r1, [pc, #428]	; (8002494 <system_ins_search+0x200>)
 80022e6:	4620      	mov	r0, r4
 80022e8:	f7ff fb6e 	bl	80019c8 <string_compare>
 80022ec:	b108      	cbz	r0, 80022f2 <system_ins_search+0x5e>
{flagreport();}
 80022ee:	f7ff fefb 	bl	80020e8 <flagreport>
if(string_compare(cmd,&stuprpt))
 80022f2:	4969      	ldr	r1, [pc, #420]	; (8002498 <system_ins_search+0x204>)
 80022f4:	4620      	mov	r0, r4
 80022f6:	f7ff fb67 	bl	80019c8 <string_compare>
 80022fa:	b108      	cbz	r0, 8002300 <system_ins_search+0x6c>
{stupreport();}
 80022fc:	f7ff ff70 	bl	80021e0 <stupreport>
if(string_compare(cmd,&adc))
 8002300:	4966      	ldr	r1, [pc, #408]	; (800249c <system_ins_search+0x208>)
 8002302:	4620      	mov	r0, r4
 8002304:	f7ff fb60 	bl	80019c8 <string_compare>
 8002308:	b108      	cbz	r0, 800230e <system_ins_search+0x7a>
{adcreport();}
 800230a:	f7ff ff91 	bl	8002230 <adcreport>
if(string_compare(cmd,&flagclr))
 800230e:	4964      	ldr	r1, [pc, #400]	; (80024a0 <system_ins_search+0x20c>)
 8002310:	4620      	mov	r0, r4
 8002312:	f7ff fb59 	bl	80019c8 <string_compare>
 8002316:	b108      	cbz	r0, 800231c <system_ins_search+0x88>
{flagclear();}
 8002318:	f7ff fd6c 	bl	8001df4 <flagclear>
if(string_compare(cmd,&convrpt))
 800231c:	4961      	ldr	r1, [pc, #388]	; (80024a4 <system_ins_search+0x210>)
 800231e:	4620      	mov	r0, r4
 8002320:	f7ff fb52 	bl	80019c8 <string_compare>
 8002324:	b108      	cbz	r0, 800232a <system_ins_search+0x96>
{convreport();}
 8002326:	f7ff ff01 	bl	800212c <convreport>
if(string_compare(cmd,&temprpt))
 800232a:	495f      	ldr	r1, [pc, #380]	; (80024a8 <system_ins_search+0x214>)
 800232c:	4620      	mov	r0, r4
 800232e:	f7ff fb4b 	bl	80019c8 <string_compare>
 8002332:	b108      	cbz	r0, 8002338 <system_ins_search+0xa4>
{tempreport();}
 8002334:	f7ff fd6a 	bl	8001e0c <tempreport>
if(string_compare(cmd,&dcp))
 8002338:	495c      	ldr	r1, [pc, #368]	; (80024ac <system_ins_search+0x218>)
 800233a:	4620      	mov	r0, r4
 800233c:	f7ff fb44 	bl	80019c8 <string_compare>
 8002340:	b128      	cbz	r0, 800234e <system_ins_search+0xba>
{duty_cycle_increment(1U);uart1_transmit(&money);}
 8002342:	2001      	movs	r0, #1
 8002344:	f000 f9c8 	bl	80026d8 <duty_cycle_increment>
 8002348:	4859      	ldr	r0, [pc, #356]	; (80024b0 <system_ins_search+0x21c>)
 800234a:	f000 fa67 	bl	800281c <uart1_transmit>
if(string_compare(cmd,&buck))
 800234e:	4959      	ldr	r1, [pc, #356]	; (80024b4 <system_ins_search+0x220>)
 8002350:	4620      	mov	r0, r4
 8002352:	f7ff fb39 	bl	80019c8 <string_compare>
 8002356:	b120      	cbz	r0, 8002362 <system_ins_search+0xce>
{buck_mode();uart1_transmit(&money);}
 8002358:	f000 f91c 	bl	8002594 <buck_mode>
 800235c:	4854      	ldr	r0, [pc, #336]	; (80024b0 <system_ins_search+0x21c>)
 800235e:	f000 fa5d 	bl	800281c <uart1_transmit>
if(string_compare(cmd,&lock))
 8002362:	4955      	ldr	r1, [pc, #340]	; (80024b8 <system_ins_search+0x224>)
 8002364:	4620      	mov	r0, r4
 8002366:	f7ff fb2f 	bl	80019c8 <string_compare>
 800236a:	b120      	cbz	r0, 8002376 <system_ins_search+0xe2>
{lockout_mode();uart1_transmit(&money);}
 800236c:	f000 f934 	bl	80025d8 <lockout_mode>
 8002370:	484f      	ldr	r0, [pc, #316]	; (80024b0 <system_ins_search+0x21c>)
 8002372:	f000 fa53 	bl	800281c <uart1_transmit>
if(dc_search(cmd))
 8002376:	4620      	mov	r0, r4
 8002378:	f7ff fc70 	bl	8001c5c <dc_search>
 800237c:	b110      	cbz	r0, 8002384 <system_ins_search+0xf0>
{uart1_transmit(&money);}
 800237e:	484c      	ldr	r0, [pc, #304]	; (80024b0 <system_ins_search+0x21c>)
 8002380:	f000 fa4c 	bl	800281c <uart1_transmit>
if(current_decode(cmd))
 8002384:	4620      	mov	r0, r4
 8002386:	f7ff fc89 	bl	8001c9c <current_decode>
 800238a:	b110      	cbz	r0, 8002392 <system_ins_search+0xfe>
{uart1_transmit(&money);}
 800238c:	4848      	ldr	r0, [pc, #288]	; (80024b0 <system_ins_search+0x21c>)
 800238e:	f000 fa45 	bl	800281c <uart1_transmit>
if(voltage_decode(cmd))
 8002392:	4620      	mov	r0, r4
 8002394:	f7ff fcc2 	bl	8001d1c <voltage_decode>
 8002398:	b110      	cbz	r0, 80023a0 <system_ins_search+0x10c>
{uart1_transmit(&money);}
 800239a:	4845      	ldr	r0, [pc, #276]	; (80024b0 <system_ins_search+0x21c>)
 800239c:	f000 fa3e 	bl	800281c <uart1_transmit>
if(exp_voltage_decode(cmd))
 80023a0:	4620      	mov	r0, r4
 80023a2:	f7ff fcf1 	bl	8001d88 <exp_voltage_decode>
 80023a6:	b110      	cbz	r0, 80023ae <system_ins_search+0x11a>
{uart1_transmit(&money);}
 80023a8:	4841      	ldr	r0, [pc, #260]	; (80024b0 <system_ins_search+0x21c>)
 80023aa:	f000 fa37 	bl	800281c <uart1_transmit>
if(string_compare(cmd,&dacup))
 80023ae:	4943      	ldr	r1, [pc, #268]	; (80024bc <system_ins_search+0x228>)
 80023b0:	4620      	mov	r0, r4
 80023b2:	f7ff fb09 	bl	80019c8 <string_compare>
 80023b6:	b128      	cbz	r0, 80023c4 <system_ins_search+0x130>
{dac_up(200U);uart1_transmit(&money);}
 80023b8:	20c8      	movs	r0, #200	; 0xc8
 80023ba:	f7fe fc8d 	bl	8000cd8 <dac_up>
 80023be:	483c      	ldr	r0, [pc, #240]	; (80024b0 <system_ins_search+0x21c>)
 80023c0:	f000 fa2c 	bl	800281c <uart1_transmit>
if(string_compare(cmd,&dacdn))
 80023c4:	493e      	ldr	r1, [pc, #248]	; (80024c0 <system_ins_search+0x22c>)
 80023c6:	4620      	mov	r0, r4
 80023c8:	f7ff fafe 	bl	80019c8 <string_compare>
 80023cc:	b128      	cbz	r0, 80023da <system_ins_search+0x146>
{dac_down(200U);uart1_transmit(&money);}
 80023ce:	20c8      	movs	r0, #200	; 0xc8
 80023d0:	f7fe fc9c 	bl	8000d0c <dac_down>
 80023d4:	4836      	ldr	r0, [pc, #216]	; (80024b0 <system_ins_search+0x21c>)
 80023d6:	f000 fa21 	bl	800281c <uart1_transmit>
if(string_compare(cmd,&dacmn))
 80023da:	493a      	ldr	r1, [pc, #232]	; (80024c4 <system_ins_search+0x230>)
 80023dc:	4620      	mov	r0, r4
 80023de:	f7ff faf3 	bl	80019c8 <string_compare>
 80023e2:	b128      	cbz	r0, 80023f0 <system_ins_search+0x15c>
{dac_set(0U);uart1_transmit(&money);}
 80023e4:	2000      	movs	r0, #0
 80023e6:	f7fe fca7 	bl	8000d38 <dac_set>
 80023ea:	4831      	ldr	r0, [pc, #196]	; (80024b0 <system_ins_search+0x21c>)
 80023ec:	f000 fa16 	bl	800281c <uart1_transmit>
if(string_compare(cmd,&dacmx))
 80023f0:	4935      	ldr	r1, [pc, #212]	; (80024c8 <system_ins_search+0x234>)
 80023f2:	4620      	mov	r0, r4
 80023f4:	f7ff fae8 	bl	80019c8 <string_compare>
 80023f8:	b130      	cbz	r0, 8002408 <system_ins_search+0x174>
{dac_set(4095U);uart1_transmit(&money);}
 80023fa:	f640 70ff 	movw	r0, #4095	; 0xfff
 80023fe:	f7fe fc9b 	bl	8000d38 <dac_set>
 8002402:	482b      	ldr	r0, [pc, #172]	; (80024b0 <system_ins_search+0x21c>)
 8002404:	f000 fa0a 	bl	800281c <uart1_transmit>
if(string_compare(cmd,&dacrpt))
 8002408:	4930      	ldr	r1, [pc, #192]	; (80024cc <system_ins_search+0x238>)
 800240a:	4620      	mov	r0, r4
 800240c:	f7ff fadc 	bl	80019c8 <string_compare>
 8002410:	b108      	cbz	r0, 8002416 <system_ins_search+0x182>
{dacreport();}
 8002412:	f7ff fef9 	bl	8002208 <dacreport>
if(string_compare(cmd,&drven))
 8002416:	492e      	ldr	r1, [pc, #184]	; (80024d0 <system_ins_search+0x23c>)
 8002418:	4620      	mov	r0, r4
 800241a:	f7ff fad5 	bl	80019c8 <string_compare>
 800241e:	b150      	cbz	r0, 8002436 <system_ins_search+0x1a2>
start_up_flags &= 0U;
 8002420:	4b2c      	ldr	r3, [pc, #176]	; (80024d4 <system_ins_search+0x240>)
uart1_transmit(&money);
 8002422:	4823      	ldr	r0, [pc, #140]	; (80024b0 <system_ins_search+0x21c>)
start_up_flags &= 0U;
 8002424:	2200      	movs	r2, #0
 8002426:	601a      	str	r2, [r3, #0]
system_flags |= START_UP_FLAG;
 8002428:	4a2b      	ldr	r2, [pc, #172]	; (80024d8 <system_ins_search+0x244>)
 800242a:	6813      	ldr	r3, [r2, #0]
 800242c:	f443 6300 	orr.w	r3, r3, #2048	; 0x800
 8002430:	6013      	str	r3, [r2, #0]
uart1_transmit(&money);
 8002432:	f000 f9f3 	bl	800281c <uart1_transmit>
if(string_compare(cmd,&drvdis))
 8002436:	4929      	ldr	r1, [pc, #164]	; (80024dc <system_ins_search+0x248>)
 8002438:	4620      	mov	r0, r4
 800243a:	f7ff fac5 	bl	80019c8 <string_compare>
 800243e:	b138      	cbz	r0, 8002450 <system_ins_search+0x1bc>
system_flags &= ~(PMIC_ENABLE_FLAG);
 8002440:	4a25      	ldr	r2, [pc, #148]	; (80024d8 <system_ins_search+0x244>)
uart1_transmit(&money);
 8002442:	481b      	ldr	r0, [pc, #108]	; (80024b0 <system_ins_search+0x21c>)
system_flags &= ~(PMIC_ENABLE_FLAG);
 8002444:	6813      	ldr	r3, [r2, #0]
 8002446:	f023 0340 	bic.w	r3, r3, #64	; 0x40
 800244a:	6013      	str	r3, [r2, #0]
uart1_transmit(&money);
 800244c:	f000 f9e6 	bl	800281c <uart1_transmit>
if(string_compare(cmd,&csrs))
 8002450:	4923      	ldr	r1, [pc, #140]	; (80024e0 <system_ins_search+0x24c>)
 8002452:	4620      	mov	r0, r4
 8002454:	f7ff fab8 	bl	80019c8 <string_compare>
 8002458:	b140      	cbz	r0, 800246c <system_ins_search+0x1d8>
{cs_offset = ((&cs_channel)->avg)-40U; uart1_transmit(&money);}
 800245a:	4b22      	ldr	r3, [pc, #136]	; (80024e4 <system_ins_search+0x250>)
 800245c:	4a22      	ldr	r2, [pc, #136]	; (80024e8 <system_ins_search+0x254>)
 800245e:	f8d3 3320 	ldr.w	r3, [r3, #800]	; 0x320
 8002462:	4813      	ldr	r0, [pc, #76]	; (80024b0 <system_ins_search+0x21c>)
 8002464:	3b28      	subs	r3, #40	; 0x28
 8002466:	8013      	strh	r3, [r2, #0]
 8002468:	f000 f9d8 	bl	800281c <uart1_transmit>
uart1_transmit(&cli_return);
 800246c:	4803      	ldr	r0, [pc, #12]	; (800247c <system_ins_search+0x1e8>)
 800246e:	f000 f9d5 	bl	800281c <uart1_transmit>
uart1_transmit(&prompt);
 8002472:	481e      	ldr	r0, [pc, #120]	; (80024ec <system_ins_search+0x258>)
}
 8002474:	e8bd 4010 	ldmia.w	sp!, {r4, lr}
uart1_transmit(&prompt);
 8002478:	f000 b9d0 	b.w	800281c <uart1_transmit>
 800247c:	20000108 	.word	0x20000108
 8002480:	200003ee 	.word	0x200003ee
 8002484:	2000040f 	.word	0x2000040f
 8002488:	200003cd 	.word	0x200003cd
 800248c:	20000021 	.word	0x20000021
 8002490:	2000038b 	.word	0x2000038b
 8002494:	200002b5 	.word	0x200002b5
 8002498:	2000036a 	.word	0x2000036a
 800249c:	20000000 	.word	0x20000000
 80024a0:	20000294 	.word	0x20000294
 80024a4:	20000129 	.word	0x20000129
 80024a8:	200003ac 	.word	0x200003ac
 80024ac:	20000231 	.word	0x20000231
 80024b0:	200002f7 	.word	0x200002f7
 80024b4:	20000063 	.word	0x20000063
 80024b8:	200002d6 	.word	0x200002d6
 80024bc:	20000210 	.word	0x20000210
 80024c0:	2000018c 	.word	0x2000018c
 80024c4:	200001ad 	.word	0x200001ad
 80024c8:	200001ce 	.word	0x200001ce
 80024cc:	200001ef 	.word	0x200001ef
 80024d0:	20000273 	.word	0x20000273
 80024d4:	200014b0 	.word	0x200014b0
 80024d8:	20000e20 	.word	0x20000e20
 80024dc:	20000252 	.word	0x20000252
 80024e0:	2000016b 	.word	0x2000016b
 80024e4:	20000adc 	.word	0x20000adc
 80024e8:	200014c8 	.word	0x200014c8
 80024ec:	20000349 	.word	0x20000349

080024f0 <system_management>:
{
 80024f0:	b508      	push	{r3, lr}
flags = uart1_get_flags();
 80024f2:	f000 f9f7 	bl	80028e4 <uart1_get_flags>
 80024f6:	4b07      	ldr	r3, [pc, #28]	; (8002514 <system_management+0x24>)
 80024f8:	7018      	strb	r0, [r3, #0]
if(flags & CMD_EXECUTE)
 80024fa:	0743      	lsls	r3, r0, #29
 80024fc:	d505      	bpl.n	800250a <system_management+0x1a>
cmd = cmd_execute();
 80024fe:	f000 f9e5 	bl	80028cc <cmd_execute>
 8002502:	4b05      	ldr	r3, [pc, #20]	; (8002518 <system_management+0x28>)
 8002504:	6018      	str	r0, [r3, #0]
system_ins_search(cmd);
 8002506:	f7ff fec5 	bl	8002294 <system_ins_search>
}
 800250a:	e8bd 4008 	ldmia.w	sp!, {r3, lr}
button_managment();
 800250e:	f7fe bfdd 	b.w	80014cc <button_managment>
 8002512:	bf00      	nop
 8002514:	200014dc 	.word	0x200014dc
 8002518:	20001518 	.word	0x20001518

0800251c <SystemInit>:

void SystemInit(void)
{
  /* FPU settings ------------------------------------------------------------*/
  #if (__FPU_PRESENT == 1) && (__FPU_USED == 1)
    SCB->CPACR |= ((3UL << 10*2)|(3UL << 11*2));  /* set CP10 and CP11 Full Access */
 800251c:	490f      	ldr	r1, [pc, #60]	; (800255c <SystemInit+0x40>)
 800251e:	f8d1 3088 	ldr.w	r3, [r1, #136]	; 0x88
 8002522:	f443 0370 	orr.w	r3, r3, #15728640	; 0xf00000
 8002526:	f8c1 3088 	str.w	r3, [r1, #136]	; 0x88
  #endif

  /* Reset the RCC clock configuration to the default reset state ------------*/
  /* Set MSION bit */
  RCC->CR |= RCC_CR_MSION;
 800252a:	4b0d      	ldr	r3, [pc, #52]	; (8002560 <SystemInit+0x44>)
 800252c:	681a      	ldr	r2, [r3, #0]

  /* Reset CFGR register */
  RCC->CFGR = 0x00000000U;
 800252e:	2000      	movs	r0, #0
  RCC->CR |= RCC_CR_MSION;
 8002530:	f042 0201 	orr.w	r2, r2, #1
 8002534:	601a      	str	r2, [r3, #0]
  RCC->CFGR = 0x00000000U;
 8002536:	6098      	str	r0, [r3, #8]

  /* Reset HSEON, CSSON , HSION, and PLLON bits */
  RCC->CR &= 0xEAF6FFFFU;
 8002538:	681a      	ldr	r2, [r3, #0]
 800253a:	f022 52a8 	bic.w	r2, r2, #352321536	; 0x15000000
 800253e:	f422 2210 	bic.w	r2, r2, #589824	; 0x90000
 8002542:	601a      	str	r2, [r3, #0]

  /* Reset PLLCFGR register */
  RCC->PLLCFGR = 0x00001000U;
 8002544:	f44f 5280 	mov.w	r2, #4096	; 0x1000
 8002548:	60da      	str	r2, [r3, #12]

  /* Reset HSEBYP bit */
  RCC->CR &= 0xFFFBFFFFU;
 800254a:	681a      	ldr	r2, [r3, #0]
 800254c:	f422 2280 	bic.w	r2, r2, #262144	; 0x40000
 8002550:	601a      	str	r2, [r3, #0]

  /* Disable all interrupts */
  RCC->CIER = 0x00000000U;
 8002552:	6198      	str	r0, [r3, #24]

  /* Configure the Vector Table location add offset address ------------------*/
#ifdef VECT_TAB_SRAM
  SCB->VTOR = SRAM_BASE | VECT_TAB_OFFSET; /* Vector Table Relocation in Internal SRAM */
#else
  SCB->VTOR = FLASH_BASE | VECT_TAB_OFFSET; /* Vector Table Relocation in Internal FLASH */
 8002554:	f04f 6300 	mov.w	r3, #134217728	; 0x8000000
 8002558:	608b      	str	r3, [r1, #8]
 800255a:	4770      	bx	lr
 800255c:	e000ed00 	.word	0xe000ed00
 8002560:	40021000 	.word	0x40021000

08002564 <set_duty_cycle.part.0>:
if(dcn < 0U)
{return;}
if(dcn > 99U)
{return;}

	dc = dcn;
 8002564:	4b07      	ldr	r3, [pc, #28]	; (8002584 <set_duty_cycle.part.0+0x20>)
 8002566:	7018      	strb	r0, [r3, #0]
	dc_val = percent*dc;
 8002568:	4b07      	ldr	r3, [pc, #28]	; (8002588 <set_duty_cycle.part.0+0x24>)
 800256a:	681b      	ldr	r3, [r3, #0]
 800256c:	4358      	muls	r0, r3
 800256e:	4b07      	ldr	r3, [pc, #28]	; (800258c <set_duty_cycle.part.0+0x28>)
 8002570:	6018      	str	r0, [r3, #0]
	((TIM1)->CCR1) = ((dc_val));
 8002572:	4b07      	ldr	r3, [pc, #28]	; (8002590 <set_duty_cycle.part.0+0x2c>)
 8002574:	6358      	str	r0, [r3, #52]	; 0x34
    ((TIM1)->CCR3) = (dc_val);
 8002576:	63d8      	str	r0, [r3, #60]	; 0x3c
    ((TIM1)->EGR) |= UG;
 8002578:	695a      	ldr	r2, [r3, #20]
 800257a:	f042 0201 	orr.w	r2, r2, #1
 800257e:	615a      	str	r2, [r3, #20]
 8002580:	4770      	bx	lr
 8002582:	bf00      	nop
 8002584:	2000151c 	.word	0x2000151c
 8002588:	20001520 	.word	0x20001520
 800258c:	2000152c 	.word	0x2000152c
 8002590:	40012c00 	.word	0x40012c00

08002594 <buck_mode>:
		mode = BUCK_MODE;
 8002594:	4b0d      	ldr	r3, [pc, #52]	; (80025cc <buck_mode+0x38>)
 8002596:	2204      	movs	r2, #4
 8002598:	701a      	strb	r2, [r3, #0]
        ((TIM1)->CCR3) = dc_val;
 800259a:	4b0d      	ldr	r3, [pc, #52]	; (80025d0 <buck_mode+0x3c>)
 800259c:	681a      	ldr	r2, [r3, #0]
 800259e:	4b0d      	ldr	r3, [pc, #52]	; (80025d4 <buck_mode+0x40>)
 80025a0:	63da      	str	r2, [r3, #60]	; 0x3c
		((TIM1)->CCMR2) &= 0U;
 80025a2:	69da      	ldr	r2, [r3, #28]
 80025a4:	2200      	movs	r2, #0
 80025a6:	61da      	str	r2, [r3, #28]
		((TIM1)->CCMR2) |= (((1U)<<(CC3PE))|((1U)<<(CC4PE)));
 80025a8:	69da      	ldr	r2, [r3, #28]
 80025aa:	f442 6200 	orr.w	r2, r2, #2048	; 0x800
 80025ae:	f042 0208 	orr.w	r2, r2, #8
 80025b2:	61da      	str	r2, [r3, #28]
		((TIM1)->CCMR2) |= ((PWM_MODE_1)<<(BUCK_PWM_SHIFT));
 80025b4:	69da      	ldr	r2, [r3, #28]
 80025b6:	f042 0260 	orr.w	r2, r2, #96	; 0x60
 80025ba:	61da      	str	r2, [r3, #28]
		((GPIOA)->ODR)  |= ((1U)<<(GPIO_11_SHIFT));
 80025bc:	f04f 4290 	mov.w	r2, #1207959552	; 0x48000000
 80025c0:	6953      	ldr	r3, [r2, #20]
 80025c2:	f443 6300 	orr.w	r3, r3, #2048	; 0x800
 80025c6:	6153      	str	r3, [r2, #20]
 80025c8:	4770      	bx	lr
 80025ca:	bf00      	nop
 80025cc:	20001524 	.word	0x20001524
 80025d0:	2000152c 	.word	0x2000152c
 80025d4:	40012c00 	.word	0x40012c00

080025d8 <lockout_mode>:
	((GPIOA)->ODR)  &= ~(((1U)<<(GPIO_11_SHIFT)));
 80025d8:	f04f 4290 	mov.w	r2, #1207959552	; 0x48000000
{
 80025dc:	b508      	push	{r3, lr}
	((GPIOA)->ODR)  &= ~(((1U)<<(GPIO_11_SHIFT)));
 80025de:	6953      	ldr	r3, [r2, #20]
 80025e0:	f423 6300 	bic.w	r3, r3, #2048	; 0x800
 80025e4:	6153      	str	r3, [r2, #20]
	((TIM1)->CCMR2) &= 0U;
 80025e6:	4b0a      	ldr	r3, [pc, #40]	; (8002610 <lockout_mode+0x38>)
 80025e8:	2000      	movs	r0, #0
 80025ea:	69da      	ldr	r2, [r3, #28]
 80025ec:	61d8      	str	r0, [r3, #28]
    ((TIM1)->CCMR2) |= (((1U)<<(CC3PE))|((1U)<<(CC4PE)));
 80025ee:	69da      	ldr	r2, [r3, #28]
 80025f0:	f442 6200 	orr.w	r2, r2, #2048	; 0x800
 80025f4:	f042 0208 	orr.w	r2, r2, #8
 80025f8:	61da      	str	r2, [r3, #28]
	((TIM1)->CCMR2) |= ((LOW_MODE)<<(BUCK_EN_SHIFT));
 80025fa:	69da      	ldr	r2, [r3, #28]
 80025fc:	f442 4280 	orr.w	r2, r2, #16384	; 0x4000
 8002600:	61da      	str	r2, [r3, #28]
 8002602:	f7ff ffaf 	bl	8002564 <set_duty_cycle.part.0>
	mode = LOCKOUT_MODE;
 8002606:	4b03      	ldr	r3, [pc, #12]	; (8002614 <lockout_mode+0x3c>)
 8002608:	2201      	movs	r2, #1
 800260a:	701a      	strb	r2, [r3, #0]
 800260c:	bd08      	pop	{r3, pc}
 800260e:	bf00      	nop
 8002610:	40012c00 	.word	0x40012c00
 8002614:	20001524 	.word	0x20001524

08002618 <tim1_enable>:
clk_freq = 80000U;
 8002618:	4a25      	ldr	r2, [pc, #148]	; (80026b0 <tim1_enable+0x98>)
((TIM1)->CCER) &= 0U;
 800261a:	4926      	ldr	r1, [pc, #152]	; (80026b4 <tim1_enable+0x9c>)
{
 800261c:	b538      	push	{r3, r4, r5, lr}
clk_freq = 80000U;
 800261e:	4b26      	ldr	r3, [pc, #152]	; (80026b8 <tim1_enable+0xa0>)
arr_val = clk_freq/(freq);
 8002620:	4c26      	ldr	r4, [pc, #152]	; (80026bc <tim1_enable+0xa4>)
clk_freq = 80000U;
 8002622:	6013      	str	r3, [r2, #0]
arr_val = clk_freq/(freq);
 8002624:	fbb3 f0f0 	udiv	r0, r3, r0
((RCC)->APB2ENR) |= RCC_TIM1_ENABLE;
 8002628:	4b25      	ldr	r3, [pc, #148]	; (80026c0 <tim1_enable+0xa8>)
arr_val = clk_freq/(freq);
 800262a:	6020      	str	r0, [r4, #0]
((RCC)->APB2ENR) |= RCC_TIM1_ENABLE;
 800262c:	6e1a      	ldr	r2, [r3, #96]	; 0x60
 800262e:	f442 6200 	orr.w	r2, r2, #2048	; 0x800
 8002632:	661a      	str	r2, [r3, #96]	; 0x60
((RCC)->AHB2ENR) |= RCC_GPIOA_ENABLE;
 8002634:	6cda      	ldr	r2, [r3, #76]	; 0x4c
 8002636:	f042 0201 	orr.w	r2, r2, #1
 800263a:	64da      	str	r2, [r3, #76]	; 0x4c
((GPIOA)->MODER) &= (~((IN_MODE)<<(GPIO_10_DSHIFT)));
 800263c:	f04f 4390 	mov.w	r3, #1207959552	; 0x48000000
((TIM1)->CCER) &= 0U;
 8002640:	2500      	movs	r5, #0
((GPIOA)->MODER) &= (~((IN_MODE)<<(GPIO_10_DSHIFT)));
 8002642:	681a      	ldr	r2, [r3, #0]
 8002644:	f422 1240 	bic.w	r2, r2, #3145728	; 0x300000
 8002648:	601a      	str	r2, [r3, #0]
((GPIOA)->MODER) |= (((AF_MODE)<<(GPIO_10_DSHIFT)));
 800264a:	681a      	ldr	r2, [r3, #0]
 800264c:	f442 1200 	orr.w	r2, r2, #2097152	; 0x200000
 8002650:	601a      	str	r2, [r3, #0]
((GPIOA)->MODER) &= (~((IN_MODE)<<(GPIO_11_DSHIFT)));
 8002652:	681a      	ldr	r2, [r3, #0]
 8002654:	f422 0240 	bic.w	r2, r2, #12582912	; 0xc00000
 8002658:	601a      	str	r2, [r3, #0]
((GPIOA)->MODER) |= (((OUT_MODE)<<(GPIO_11_DSHIFT)));
 800265a:	681a      	ldr	r2, [r3, #0]
 800265c:	f442 0280 	orr.w	r2, r2, #4194304	; 0x400000
 8002660:	601a      	str	r2, [r3, #0]
(((GPIOA)->AFR)[1]) |= ((AF1)<<(GPIO_10_QSHIFT));
 8002662:	6a5a      	ldr	r2, [r3, #36]	; 0x24
 8002664:	f442 7280 	orr.w	r2, r2, #256	; 0x100
 8002668:	625a      	str	r2, [r3, #36]	; 0x24
((TIM1)->CCER) &= 0U;
 800266a:	6a0b      	ldr	r3, [r1, #32]
 800266c:	620d      	str	r5, [r1, #32]
lockout_mode();
 800266e:	f7ff ffb3 	bl	80025d8 <lockout_mode>
((TIM1)->ARR) = arr_val;
 8002672:	6823      	ldr	r3, [r4, #0]
 8002674:	62cb      	str	r3, [r1, #44]	; 0x2c
percent = ((arr_val/100U)+1U);
 8002676:	2264      	movs	r2, #100	; 0x64
 8002678:	fbb3 f3f2 	udiv	r3, r3, r2
 800267c:	4a11      	ldr	r2, [pc, #68]	; (80026c4 <tim1_enable+0xac>)
 800267e:	3301      	adds	r3, #1
 8002680:	6013      	str	r3, [r2, #0]
dc = 0;
 8002682:	4b11      	ldr	r3, [pc, #68]	; (80026c8 <tim1_enable+0xb0>)
 8002684:	701d      	strb	r5, [r3, #0]
((TIM1)->CCER) |= ((1U)<<(CC3_SHIFT));
 8002686:	6a0b      	ldr	r3, [r1, #32]
 8002688:	f443 7380 	orr.w	r3, r3, #256	; 0x100
 800268c:	620b      	str	r3, [r1, #32]
((TIM1)->CCMR1) |= (((1U)<<(CC1PE))|((1U)<<(CC2PE)));
 800268e:	698a      	ldr	r2, [r1, #24]
 8002690:	f640 0008 	movw	r0, #2056	; 0x808
 8002694:	4302      	orrs	r2, r0
 8002696:	618a      	str	r2, [r1, #24]
((TIM1)->CCMR2) |= (((1U)<<(CC3PE))|((1U)<<(CC4PE)));
 8002698:	69cb      	ldr	r3, [r1, #28]
 800269a:	4303      	orrs	r3, r0
 800269c:	61cb      	str	r3, [r1, #28]
((TIM1)->BDTR) |= MOE;
 800269e:	6c4b      	ldr	r3, [r1, #68]	; 0x44
 80026a0:	f443 4300 	orr.w	r3, r3, #32768	; 0x8000
 80026a4:	644b      	str	r3, [r1, #68]	; 0x44
((TIM1)->CR1) |= TIM1_ENABLE;
 80026a6:	680b      	ldr	r3, [r1, #0]
 80026a8:	f043 0301 	orr.w	r3, r3, #1
 80026ac:	600b      	str	r3, [r1, #0]
 80026ae:	bd38      	pop	{r3, r4, r5, pc}
 80026b0:	20001530 	.word	0x20001530
 80026b4:	40012c00 	.word	0x40012c00
 80026b8:	00013880 	.word	0x00013880
 80026bc:	20001528 	.word	0x20001528
 80026c0:	40021000 	.word	0x40021000
 80026c4:	20001520 	.word	0x20001520
 80026c8:	2000151c 	.word	0x2000151c

080026cc <mode_check>:
{return mode;}
 80026cc:	4b01      	ldr	r3, [pc, #4]	; (80026d4 <mode_check+0x8>)
 80026ce:	7818      	ldrb	r0, [r3, #0]
 80026d0:	4770      	bx	lr
 80026d2:	bf00      	nop
 80026d4:	20001524 	.word	0x20001524

080026d8 <duty_cycle_increment>:
dc_val+=step;
 80026d8:	4b0b      	ldr	r3, [pc, #44]	; (8002708 <duty_cycle_increment+0x30>)
dc = dc_val/percent;
 80026da:	490c      	ldr	r1, [pc, #48]	; (800270c <duty_cycle_increment+0x34>)
dc_val+=step;
 80026dc:	681a      	ldr	r2, [r3, #0]
 80026de:	4410      	add	r0, r2
if(dc_val >= (arr_val - 1U))
 80026e0:	4a0b      	ldr	r2, [pc, #44]	; (8002710 <duty_cycle_increment+0x38>)
dc_val+=step;
 80026e2:	6018      	str	r0, [r3, #0]
if(dc_val >= (arr_val - 1U))
 80026e4:	6812      	ldr	r2, [r2, #0]
 80026e6:	3a01      	subs	r2, #1
 80026e8:	4290      	cmp	r0, r2
{dc_val = (arr_val - 1U);}
 80026ea:	bf28      	it	cs
 80026ec:	601a      	strcs	r2, [r3, #0]
dc = dc_val/percent;
 80026ee:	681a      	ldr	r2, [r3, #0]
 80026f0:	4b08      	ldr	r3, [pc, #32]	; (8002714 <duty_cycle_increment+0x3c>)
 80026f2:	681b      	ldr	r3, [r3, #0]
 80026f4:	fbb2 f3f3 	udiv	r3, r2, r3
 80026f8:	700b      	strb	r3, [r1, #0]
if(mode == BUCK_MODE)
 80026fa:	4b07      	ldr	r3, [pc, #28]	; (8002718 <duty_cycle_increment+0x40>)
 80026fc:	781b      	ldrb	r3, [r3, #0]
 80026fe:	2b04      	cmp	r3, #4
{((TIM1)->CCR3) = (dc_val);}
 8002700:	bf04      	itt	eq
 8002702:	4b06      	ldreq	r3, [pc, #24]	; (800271c <duty_cycle_increment+0x44>)
 8002704:	63da      	streq	r2, [r3, #60]	; 0x3c
 8002706:	4770      	bx	lr
 8002708:	2000152c 	.word	0x2000152c
 800270c:	2000151c 	.word	0x2000151c
 8002710:	20001528 	.word	0x20001528
 8002714:	20001520 	.word	0x20001520
 8002718:	20001524 	.word	0x20001524
 800271c:	40012c00 	.word	0x40012c00

08002720 <duty_cycle_decrement>:
    if(step >= dc_val)
 8002720:	4b0a      	ldr	r3, [pc, #40]	; (800274c <duty_cycle_decrement+0x2c>)
    dc = dc_val/percent;
 8002722:	490b      	ldr	r1, [pc, #44]	; (8002750 <duty_cycle_decrement+0x30>)
    if(step >= dc_val)
 8002724:	681a      	ldr	r2, [r3, #0]
 8002726:	4282      	cmp	r2, r0
    {dc_val = 0U;}
 8002728:	bf94      	ite	ls
 800272a:	2200      	movls	r2, #0
    {dc_val -= step;}
 800272c:	1a12      	subhi	r2, r2, r0
 800272e:	601a      	str	r2, [r3, #0]
    dc = dc_val/percent;
 8002730:	681a      	ldr	r2, [r3, #0]
 8002732:	4b08      	ldr	r3, [pc, #32]	; (8002754 <duty_cycle_decrement+0x34>)
 8002734:	681b      	ldr	r3, [r3, #0]
 8002736:	fbb2 f3f3 	udiv	r3, r2, r3
 800273a:	700b      	strb	r3, [r1, #0]
	if(mode == BUCK_MODE)
 800273c:	4b06      	ldr	r3, [pc, #24]	; (8002758 <duty_cycle_decrement+0x38>)
 800273e:	781b      	ldrb	r3, [r3, #0]
 8002740:	2b04      	cmp	r3, #4
	{((TIM1)->CCR3) = (dc_val);}
 8002742:	bf04      	itt	eq
 8002744:	4b05      	ldreq	r3, [pc, #20]	; (800275c <duty_cycle_decrement+0x3c>)
 8002746:	63da      	streq	r2, [r3, #60]	; 0x3c
 8002748:	4770      	bx	lr
 800274a:	bf00      	nop
 800274c:	2000152c 	.word	0x2000152c
 8002750:	2000151c 	.word	0x2000151c
 8002754:	20001520 	.word	0x20001520
 8002758:	20001524 	.word	0x20001524
 800275c:	40012c00 	.word	0x40012c00

08002760 <set_duty_cycle>:
if(dcn > 99U)
 8002760:	2863      	cmp	r0, #99	; 0x63
 8002762:	d801      	bhi.n	8002768 <set_duty_cycle+0x8>
 8002764:	f7ff befe 	b.w	8002564 <set_duty_cycle.part.0>
 8002768:	4770      	bx	lr
	...

0800276c <uart1_enable>:
uint8_t debug;

void uart1_enable(void)
{
/*ENABLE THE USART RCC*/
((RCC)->APB2ENR) |= RCC_USART1_ENABLE;
 800276c:	4b24      	ldr	r3, [pc, #144]	; (8002800 <uart1_enable+0x94>)
 800276e:	6e1a      	ldr	r2, [r3, #96]	; 0x60
 8002770:	f442 4280 	orr.w	r2, r2, #16384	; 0x4000
{
 8002774:	b510      	push	{r4, lr}
((RCC)->APB2ENR) |= RCC_USART1_ENABLE;
 8002776:	661a      	str	r2, [r3, #96]	; 0x60

/*ENABLE GPIOA RCC*/
((RCC)->AHB2ENR) |= RCC_GPIOB_ENABLE;
 8002778:	6cda      	ldr	r2, [r3, #76]	; 0x4c
 800277a:	f042 0202 	orr.w	r2, r2, #2
 800277e:	64da      	str	r2, [r3, #76]	; 0x4c

/*Set the PA9 PA10 to AF_MODE*/
((GPIOB)->MODER) &= (~((IN_MODE)<<(GPIO_6_DSHIFT)));
 8002780:	4b20      	ldr	r3, [pc, #128]	; (8002804 <uart1_enable+0x98>)
 8002782:	681a      	ldr	r2, [r3, #0]
 8002784:	f422 5240 	bic.w	r2, r2, #12288	; 0x3000
 8002788:	601a      	str	r2, [r3, #0]
((GPIOB)->MODER) |= ((AF_MODE)<<(GPIO_6_DSHIFT));
 800278a:	681a      	ldr	r2, [r3, #0]
 800278c:	f442 5200 	orr.w	r2, r2, #8192	; 0x2000
 8002790:	601a      	str	r2, [r3, #0]

((GPIOB)->MODER) &= (~((IN_MODE)<<(GPIO_7_DSHIFT)));
 8002792:	681a      	ldr	r2, [r3, #0]
 8002794:	f422 4240 	bic.w	r2, r2, #49152	; 0xc000
 8002798:	601a      	str	r2, [r3, #0]
((GPIOB)->MODER) |= ((AF_MODE)<<(GPIO_7_DSHIFT));
 800279a:	681a      	ldr	r2, [r3, #0]
 800279c:	f442 4200 	orr.w	r2, r2, #32768	; 0x8000
 80027a0:	601a      	str	r2, [r3, #0]

(((GPIOB)->AFR)[0]) |= ((AF7)<<(GPIO_6_QSHIFT));
 80027a2:	6a1a      	ldr	r2, [r3, #32]
 80027a4:	f042 62e0 	orr.w	r2, r2, #117440512	; 0x7000000
 80027a8:	621a      	str	r2, [r3, #32]
(((GPIOB)->AFR)[0]) |= ((AF7)<<(GPIO_7_QSHIFT));
 80027aa:	6a1a      	ldr	r2, [r3, #32]
 80027ac:	f042 42e0 	orr.w	r2, r2, #1879048192	; 0x70000000
 80027b0:	621a      	str	r2, [r3, #32]



/*Enable Receiver Transmitter and Receiver Not Empty Interrupt*/
((USART1)->CR1) |= ((RXNE)|(RE)|TE);
 80027b2:	4b15      	ldr	r3, [pc, #84]	; (8002808 <uart1_enable+0x9c>)
 80027b4:	681a      	ldr	r2, [r3, #0]
 80027b6:	f042 022c 	orr.w	r2, r2, #44	; 0x2c
 80027ba:	601a      	str	r2, [r3, #0]
/*Set Baud Rate to 115200*/
((USART1)->BRR) &= 0U;
 80027bc:	2100      	movs	r1, #0
 80027be:	68da      	ldr	r2, [r3, #12]
 80027c0:	60d9      	str	r1, [r3, #12]
((USART1)->BRR) |= BR_115;
 80027c2:	68da      	ldr	r2, [r3, #12]
 80027c4:	f442 722d 	orr.w	r2, r2, #692	; 0x2b4
 80027c8:	f042 0202 	orr.w	r2, r2, #2
 80027cc:	60da      	str	r2, [r3, #12]
  NVIC->ICPR[(((uint32_t)(int32_t)IRQn) >> 5UL)] = (uint32_t)(1UL << (((uint32_t)(int32_t)IRQn) & 0x1FUL));
 80027ce:	4a0f      	ldr	r2, [pc, #60]	; (800280c <uart1_enable+0xa0>)
 80027d0:	2020      	movs	r0, #32
    NVIC->IP[((uint32_t)(int32_t)IRQn)]               = (uint8_t)((priority << (8U - __NVIC_PRIO_BITS)) & (uint32_t)0xFFUL);
 80027d2:	2410      	movs	r4, #16
  NVIC->ICPR[(((uint32_t)(int32_t)IRQn) >> 5UL)] = (uint32_t)(1UL << (((uint32_t)(int32_t)IRQn) & 0x1FUL));
 80027d4:	f8c2 0184 	str.w	r0, [r2, #388]	; 0x184
    NVIC->IP[((uint32_t)(int32_t)IRQn)]               = (uint8_t)((priority << (8U - __NVIC_PRIO_BITS)) & (uint32_t)0xFFUL);
 80027d8:	f882 4325 	strb.w	r4, [r2, #805]	; 0x325
  NVIC->ISER[(((uint32_t)(int32_t)IRQn) >> 5UL)] = (uint32_t)(1UL << (((uint32_t)(int32_t)IRQn) & 0x1FUL));
 80027dc:	6050      	str	r0, [r2, #4]
NVIC_ClearPendingIRQ(USART1_IRQn);
NVIC_SetPriority(USART1_IRQn, 1U);
NVIC_EnableIRQ(USART1_IRQn);

/*Enable UART*/
((USART1)->CR1) |= UE;
 80027de:	681a      	ldr	r2, [r3, #0]
 80027e0:	f042 0201 	orr.w	r2, r2, #1
 80027e4:	601a      	str	r2, [r3, #0]

((USART1)->TDR) = 17U;
 80027e6:	2211      	movs	r2, #17
 80027e8:	851a      	strh	r2, [r3, #40]	; 0x28

outi = 0U;
 80027ea:	4b09      	ldr	r3, [pc, #36]	; (8002810 <uart1_enable+0xa4>)
debug = 0U;
uart_flags |= ((UART_STARTED)|(CMD_EXECUTE));
 80027ec:	4a09      	ldr	r2, [pc, #36]	; (8002814 <uart1_enable+0xa8>)
outi = 0U;
 80027ee:	7019      	strb	r1, [r3, #0]
debug = 0U;
 80027f0:	4b09      	ldr	r3, [pc, #36]	; (8002818 <uart1_enable+0xac>)
 80027f2:	7019      	strb	r1, [r3, #0]
uart_flags |= ((UART_STARTED)|(CMD_EXECUTE));
 80027f4:	7813      	ldrb	r3, [r2, #0]
 80027f6:	f043 0305 	orr.w	r3, r3, #5
 80027fa:	7013      	strb	r3, [r2, #0]
 80027fc:	bd10      	pop	{r4, pc}
 80027fe:	bf00      	nop
 8002800:	40021000 	.word	0x40021000
 8002804:	48000400 	.word	0x48000400
 8002808:	40013800 	.word	0x40013800
 800280c:	e000e100 	.word	0xe000e100
 8002810:	2000153c 	.word	0x2000153c
 8002814:	20001534 	.word	0x20001534
 8002818:	2000153d 	.word	0x2000153d

0800281c <uart1_transmit>:


void uart1_transmit(STRING* in)
{

	for(outi=0U; outi<((in)->length); outi++)
 800281c:	4a0a      	ldr	r2, [pc, #40]	; (8002848 <uart1_transmit+0x2c>)
 800281e:	2300      	movs	r3, #0
{
 8002820:	b530      	push	{r4, r5, lr}
	for(outi=0U; outi<((in)->length); outi++)
 8002822:	7013      	strb	r3, [r2, #0]
 8002824:	7805      	ldrb	r5, [r0, #0]
	{
	((USART1)->TDR) = (((in)->string)[outi]);
 8002826:	4c09      	ldr	r4, [pc, #36]	; (800284c <uart1_transmit+0x30>)
	for(outi=0U; outi<((in)->length); outi++)
 8002828:	4619      	mov	r1, r3
 800282a:	429d      	cmp	r5, r3
 800282c:	d802      	bhi.n	8002834 <uart1_transmit+0x18>
 800282e:	b101      	cbz	r1, 8002832 <uart1_transmit+0x16>
 8002830:	7013      	strb	r3, [r2, #0]
 8002832:	bd30      	pop	{r4, r5, pc}
	((USART1)->TDR) = (((in)->string)[outi]);
 8002834:	f810 1f01 	ldrb.w	r1, [r0, #1]!
 8002838:	8521      	strh	r1, [r4, #40]	; 0x28
	while((((USART1)->ISR) & TXE) == 0U)
 800283a:	69e1      	ldr	r1, [r4, #28]
 800283c:	0609      	lsls	r1, r1, #24
 800283e:	d5fc      	bpl.n	800283a <uart1_transmit+0x1e>
 8002840:	3301      	adds	r3, #1
 8002842:	b2db      	uxtb	r3, r3
 8002844:	2101      	movs	r1, #1
 8002846:	e7f0      	b.n	800282a <uart1_transmit+0xe>
 8002848:	2000153c 	.word	0x2000153c
 800284c:	40013800 	.word	0x40013800

08002850 <uart1_buffer_char>:



void uart1_buffer_char(void)
{
uint8_t char_in = ((USART1)->RDR);
 8002850:	4819      	ldr	r0, [pc, #100]	; (80028b8 <uart1_buffer_char+0x68>)
 8002852:	8c83      	ldrh	r3, [r0, #36]	; 0x24
 8002854:	b2db      	uxtb	r3, r3

if((char_in > 31U) && (char_in < 127U))
 8002856:	f1a3 0220 	sub.w	r2, r3, #32
 800285a:	2a5e      	cmp	r2, #94	; 0x5e
{
 800285c:	b5f0      	push	{r4, r5, r6, r7, lr}
if((char_in > 31U) && (char_in < 127U))
 800285e:	d80d      	bhi.n	800287c <uart1_buffer_char+0x2c>
{
((&current_input)->string)[((&current_input)->length)] = char_in;
 8002860:	4916      	ldr	r1, [pc, #88]	; (80028bc <uart1_buffer_char+0x6c>)
 8002862:	780a      	ldrb	r2, [r1, #0]
 8002864:	188c      	adds	r4, r1, r2
((&current_input)->length)++;
 8002866:	3201      	adds	r2, #1
((&current_input)->string)[((&current_input)->length)] = char_in;
 8002868:	7063      	strb	r3, [r4, #1]
 800286a:	b29b      	uxth	r3, r3
((&current_input)->length)++;
 800286c:	700a      	strb	r2, [r1, #0]
((USART1)->TDR) = char_in;
 800286e:	8503      	strh	r3, [r0, #40]	; 0x28

uart_flags |= (CMD_EXECUTE);
}


((USART1)->ICR) |= (RXNE);
 8002870:	4a11      	ldr	r2, [pc, #68]	; (80028b8 <uart1_buffer_char+0x68>)
 8002872:	6a13      	ldr	r3, [r2, #32]
 8002874:	f043 0320 	orr.w	r3, r3, #32
 8002878:	6213      	str	r3, [r2, #32]
 800287a:	bdf0      	pop	{r4, r5, r6, r7, pc}
if(char_in == 13U)
 800287c:	2b0d      	cmp	r3, #13
 800287e:	d1f7      	bne.n	8002870 <uart1_buffer_char+0x20>
for(ui=0U; ui<((&current_input)->length); ui++)
 8002880:	4a0e      	ldr	r2, [pc, #56]	; (80028bc <uart1_buffer_char+0x6c>)
 8002882:	490f      	ldr	r1, [pc, #60]	; (80028c0 <uart1_buffer_char+0x70>)
 8002884:	7815      	ldrb	r5, [r2, #0]
 8002886:	4c0f      	ldr	r4, [pc, #60]	; (80028c4 <uart1_buffer_char+0x74>)
 8002888:	2300      	movs	r3, #0
 800288a:	700b      	strb	r3, [r1, #0]
 800288c:	461e      	mov	r6, r3
 800288e:	b2df      	uxtb	r7, r3
 8002890:	3301      	adds	r3, #1
 8002892:	1e58      	subs	r0, r3, #1
 8002894:	b2c0      	uxtb	r0, r0
 8002896:	4285      	cmp	r5, r0
 8002898:	d80a      	bhi.n	80028b0 <uart1_buffer_char+0x60>
 800289a:	b106      	cbz	r6, 800289e <uart1_buffer_char+0x4e>
 800289c:	700f      	strb	r7, [r1, #0]
((&current_input)->length) = 0U;
 800289e:	2300      	movs	r3, #0
 80028a0:	7013      	strb	r3, [r2, #0]
uart_flags |= (CMD_EXECUTE);
 80028a2:	4a09      	ldr	r2, [pc, #36]	; (80028c8 <uart1_buffer_char+0x78>)
((&last_command)->length) = ((&current_input)->length);
 80028a4:	7025      	strb	r5, [r4, #0]
uart_flags |= (CMD_EXECUTE);
 80028a6:	7813      	ldrb	r3, [r2, #0]
 80028a8:	f043 0304 	orr.w	r3, r3, #4
 80028ac:	7013      	strb	r3, [r2, #0]
 80028ae:	e7df      	b.n	8002870 <uart1_buffer_char+0x20>
{(((&last_command)->string)[ui]) = (((&current_input)->string)[ui]);}
 80028b0:	5cd0      	ldrb	r0, [r2, r3]
 80028b2:	54e0      	strb	r0, [r4, r3]
 80028b4:	2601      	movs	r6, #1
 80028b6:	e7ea      	b.n	800288e <uart1_buffer_char+0x3e>
 80028b8:	40013800 	.word	0x40013800
 80028bc:	2000156c 	.word	0x2000156c
 80028c0:	2000158d 	.word	0x2000158d
 80028c4:	20001544 	.word	0x20001544
 80028c8:	20001534 	.word	0x20001534

080028cc <cmd_execute>:
}


STRING* cmd_execute(void)
{
uart_flags &= (~(CMD_EXECUTE));
 80028cc:	4a03      	ldr	r2, [pc, #12]	; (80028dc <cmd_execute+0x10>)
return (&last_command);
}
 80028ce:	4804      	ldr	r0, [pc, #16]	; (80028e0 <cmd_execute+0x14>)
uart_flags &= (~(CMD_EXECUTE));
 80028d0:	7813      	ldrb	r3, [r2, #0]
 80028d2:	f023 0304 	bic.w	r3, r3, #4
 80028d6:	7013      	strb	r3, [r2, #0]
}
 80028d8:	4770      	bx	lr
 80028da:	bf00      	nop
 80028dc:	20001534 	.word	0x20001534
 80028e0:	20001544 	.word	0x20001544

080028e4 <uart1_get_flags>:


uint8_t uart1_get_flags(void)
{return uart_flags;}
 80028e4:	4b01      	ldr	r3, [pc, #4]	; (80028ec <uart1_get_flags+0x8>)
 80028e6:	7818      	ldrb	r0, [r3, #0]
 80028e8:	4770      	bx	lr
 80028ea:	bf00      	nop
 80028ec:	20001534 	.word	0x20001534

080028f0 <Reset_Handler>:

    .section	.text.Reset_Handler
	.weak	Reset_Handler
	.type	Reset_Handler, %function
Reset_Handler:
  ldr   sp, =_estack    /* Atollic update: set stack pointer */
 80028f0:	f8df d034 	ldr.w	sp, [pc, #52]	; 8002928 <LoopForever+0x2>

/* Copy the data segment initializers from flash to SRAM */
  movs	r1, #0
 80028f4:	2100      	movs	r1, #0
  b	LoopCopyDataInit
 80028f6:	e003      	b.n	8002900 <LoopCopyDataInit>

080028f8 <CopyDataInit>:

CopyDataInit:
	ldr	r3, =_sidata
 80028f8:	4b0c      	ldr	r3, [pc, #48]	; (800292c <LoopForever+0x6>)
	ldr	r3, [r3, r1]
 80028fa:	585b      	ldr	r3, [r3, r1]
	str	r3, [r0, r1]
 80028fc:	5043      	str	r3, [r0, r1]
	adds	r1, r1, #4
 80028fe:	3104      	adds	r1, #4

08002900 <LoopCopyDataInit>:

LoopCopyDataInit:
	ldr	r0, =_sdata
 8002900:	480b      	ldr	r0, [pc, #44]	; (8002930 <LoopForever+0xa>)
	ldr	r3, =_edata
 8002902:	4b0c      	ldr	r3, [pc, #48]	; (8002934 <LoopForever+0xe>)
	adds	r2, r0, r1
 8002904:	1842      	adds	r2, r0, r1
	cmp	r2, r3
 8002906:	429a      	cmp	r2, r3
	bcc	CopyDataInit
 8002908:	d3f6      	bcc.n	80028f8 <CopyDataInit>
	ldr	r2, =_sbss
 800290a:	4a0b      	ldr	r2, [pc, #44]	; (8002938 <LoopForever+0x12>)
	b	LoopFillZerobss
 800290c:	e002      	b.n	8002914 <LoopFillZerobss>

0800290e <FillZerobss>:
/* Zero fill the bss segment. */
FillZerobss:
	movs	r3, #0
 800290e:	2300      	movs	r3, #0
	str	r3, [r2], #4
 8002910:	f842 3b04 	str.w	r3, [r2], #4

08002914 <LoopFillZerobss>:

LoopFillZerobss:
	ldr	r3, = _ebss
 8002914:	4b09      	ldr	r3, [pc, #36]	; (800293c <LoopForever+0x16>)
	cmp	r2, r3
 8002916:	429a      	cmp	r2, r3
	bcc	FillZerobss
 8002918:	d3f9      	bcc.n	800290e <FillZerobss>

/* Call the clock system intitialization function.*/
    bl  SystemInit
 800291a:	f7ff fdff 	bl	800251c <SystemInit>
/* Call static constructors */
    bl __libc_init_array
 800291e:	f000 f811 	bl	8002944 <__libc_init_array>
/* Call the application's entry point.*/
	bl	main
 8002922:	f7fe fac1 	bl	8000ea8 <main>

08002926 <LoopForever>:

LoopForever:
    b LoopForever
 8002926:	e7fe      	b.n	8002926 <LoopForever>
  ldr   sp, =_estack    /* Atollic update: set stack pointer */
 8002928:	20010000 	.word	0x20010000
	ldr	r3, =_sidata
 800292c:	080029ec 	.word	0x080029ec
	ldr	r0, =_sdata
 8002930:	20000000 	.word	0x20000000
	ldr	r3, =_edata
 8002934:	20000434 	.word	0x20000434
	ldr	r2, =_sbss
 8002938:	20000434 	.word	0x20000434
	ldr	r3, = _ebss
 800293c:	20001590 	.word	0x20001590

08002940 <CAN1_RX0_IRQHandler>:
 * @retval : None
*/
    .section	.text.Default_Handler,"ax",%progbits
Default_Handler:
Infinite_Loop:
	b	Infinite_Loop
 8002940:	e7fe      	b.n	8002940 <CAN1_RX0_IRQHandler>
	...

08002944 <__libc_init_array>:
 8002944:	b570      	push	{r4, r5, r6, lr}
 8002946:	4e0d      	ldr	r6, [pc, #52]	; (800297c <__libc_init_array+0x38>)
 8002948:	4c0d      	ldr	r4, [pc, #52]	; (8002980 <__libc_init_array+0x3c>)
 800294a:	1ba4      	subs	r4, r4, r6
 800294c:	10a4      	asrs	r4, r4, #2
 800294e:	2500      	movs	r5, #0
 8002950:	42a5      	cmp	r5, r4
 8002952:	d109      	bne.n	8002968 <__libc_init_array+0x24>
 8002954:	4e0b      	ldr	r6, [pc, #44]	; (8002984 <__libc_init_array+0x40>)
 8002956:	4c0c      	ldr	r4, [pc, #48]	; (8002988 <__libc_init_array+0x44>)
 8002958:	f000 f818 	bl	800298c <_init>
 800295c:	1ba4      	subs	r4, r4, r6
 800295e:	10a4      	asrs	r4, r4, #2
 8002960:	2500      	movs	r5, #0
 8002962:	42a5      	cmp	r5, r4
 8002964:	d105      	bne.n	8002972 <__libc_init_array+0x2e>
 8002966:	bd70      	pop	{r4, r5, r6, pc}
 8002968:	f856 3025 	ldr.w	r3, [r6, r5, lsl #2]
 800296c:	4798      	blx	r3
 800296e:	3501      	adds	r5, #1
 8002970:	e7ee      	b.n	8002950 <__libc_init_array+0xc>
 8002972:	f856 3025 	ldr.w	r3, [r6, r5, lsl #2]
 8002976:	4798      	blx	r3
 8002978:	3501      	adds	r5, #1
 800297a:	e7f2      	b.n	8002962 <__libc_init_array+0x1e>
 800297c:	080029e4 	.word	0x080029e4
 8002980:	080029e4 	.word	0x080029e4
 8002984:	080029e4 	.word	0x080029e4
 8002988:	080029e8 	.word	0x080029e8

0800298c <_init>:
 800298c:	b5f8      	push	{r3, r4, r5, r6, r7, lr}
 800298e:	bf00      	nop
 8002990:	bcf8      	pop	{r3, r4, r5, r6, r7}
 8002992:	bc08      	pop	{r3}
 8002994:	469e      	mov	lr, r3
 8002996:	4770      	bx	lr

08002998 <_fini>:
 8002998:	b5f8      	push	{r3, r4, r5, r6, r7, lr}
 800299a:	bf00      	nop
 800299c:	bcf8      	pop	{r3, r4, r5, r6, r7}
 800299e:	bc08      	pop	{r3}
 80029a0:	469e      	mov	lr, r3
 80029a2:	4770      	bx	lr
